(dp0
VOCC3OC(OCC2OC(OC(C#N)c1ccccc1)C(O)C(O)C2O)C(O)C(O)C3O
p1
(lp2
F1.0
aF457.432
aF7.0
aF3.0
aF7.0
aF202.32
asVCc1occc1C(=O)Nc2ccccc2
p3
(lp4
F1.0
aF201.225
aF1.0
aF2.0
aF2.0
aF42.24
asVCC(C)=CCCC(C)=CC(=O)
p5
(lp6
F1.0
aF152.237
aF0.0
aF0.0
aF4.0
aF17.07
asVc1ccc2c(c1)ccc3c2ccc4c5ccccc5ccc43
p7
(lp8
F2.0
aF278.354
aF0.0
aF5.0
aF0.0
aF0.0
asVc1ccsc1
p9
(lp10
F2.0
aF84.143
aF0.0
aF1.0
aF0.0
aF0.0
asVc2ccc1scnc1c2
p11
(lp12
F2.0
aF135.191
aF0.0
aF2.0
aF0.0
aF12.89
asVClc1cc(Cl)c(c(Cl)c1)c2c(Cl)cccc2Cl
p13
(lp14
F1.0
aF326.437
aF0.0
aF2.0
aF1.0
aF0.0
asVCC12CCC3C(CCc4cc(O)ccc34)C2CCC1O
p15
(lp16
F1.0
aF272.388
aF2.0
aF4.0
aF0.0
aF40.46
asVClC4=C(Cl)C5(Cl)C3C1CC(C2OC12)C3C4(Cl)C5(Cl)Cl
p17
(lp18
F1.0
aF380.913
aF0.0
aF5.0
aF0.0
aF12.53
asVCOc5cc4OCC3Oc2c1CC(Oc1ccc2C(=O)C3c4cc5OC)C(C)=C
p19
(lp20
F1.0
aF394.423
aF0.0
aF5.0
aF3.0
aF63.22
asVO=C1CCCN1
p21
(lp22
F1.0
aF85.106
aF1.0
aF1.0
aF0.0
aF29.1
asVClc1ccc2ccccc2c1
p23
(lp24
F1.0
aF162.619
aF0.0
aF2.0
aF0.0
aF0.0
asVCCCC=C
p25
(lp26
F1.0
aF70.135
aF0.0
aF0.0
aF2.0
aF0.0
asVCCC1(C(=O)NCNC1=O)c2ccccc2
p27
(lp28
F1.0
aF218.256
aF2.0
aF2.0
aF2.0
aF58.2
asVCCCCCCCCCCCCCC
p29
(lp30
F1.0
aF198.394
aF0.0
aF0.0
aF11.0
aF0.0
asVCC(C)Cl
p31
(lp32
F1.0
aF78.542
aF0.0
aF0.0
aF0.0
aF0.0
asVCCC(C)CO
p33
(lp34
F1.0
aF88.15
aF1.0
aF0.0
aF2.0
aF20.23
asVN#Cc1ccccc1
p35
(lp36
F1.0
aF103.124
aF0.0
aF1.0
aF0.0
aF23.79
asVCCOP(=S)(OCC)Oc1cc(C)nc(n1)C(C)C
p37
(lp38
F1.0
aF304.352
aF0.0
aF1.0
aF7.0
aF53.47
asVCCCCCCCCCC(C)O
p39
(lp40
F1.0
aF172.312
aF1.0
aF0.0
aF8.0
aF20.23
asVClc1ccc(c(Cl)c1)c2c(Cl)ccc(Cl)c2Cl
p41
(lp42
F1.0
aF326.437
aF0.0
aF2.0
aF1.0
aF0.0
asVO=c2[nH]c1CCCc1c(=O)n2C3CCCCC3
p43
(lp44
F1.0
aF234.299
aF1.0
aF3.0
aF1.0
aF54.86
asVCCOP(=S)(OCC)SCSCC
p45
(lp46
F1.0
aF260.386
aF0.0
aF0.0
aF8.0
aF18.46
asVCCOc1ccc(NC(=O)C)cc1
p47
(lp48
F1.0
aF179.219
aF1.0
aF1.0
aF3.0
aF38.33
asVCCN(CC)c1c(cc(c(N)c1N(=O)=O)C(F)(F)F)N(=O)=O
p49
(lp50
F1.0
aF322.243
aF1.0
aF1.0
aF5.0
aF115.54
asVCCCCCCCO
p51
(lp52
F1.0
aF116.204
aF1.0
aF0.0
aF5.0
aF20.23
asVCn1c(=O)n(C)c2nc[nH]c2c1=O
p53
(lp54
F1.0
aF180.167
aF1.0
aF2.0
aF0.0
aF72.68
asVCCCCC1(CC)C(=O)NC(=O)NC1=O
p55
(lp56
F1.0
aF212.249
aF2.0
aF1.0
aF4.0
aF75.27
asVClC(Cl)=C(c1ccc(Cl)cc1)c2ccc(Cl)cc2
p57
(lp58
F1.0
aF318.03
aF0.0
aF2.0
aF2.0
aF0.0
asVCCCCCCCC(=O)OC
p59
(lp60
F1.0
aF158.241
aF0.0
aF0.0
aF6.0
aF26.3
asVCCc1ccc(CC)cc1
p61
(lp62
F1.0
aF134.222
aF0.0
aF1.0
aF2.0
aF0.0
asVCCOP(=S)(OCC)SCSC(C)(C)C
p63
(lp64
F1.0
aF288.44
aF0.0
aF0.0
aF7.0
aF18.46
asVCOC(=O)Nc1cccc(OC(=O)Nc2cccc(C)c2)c1
p65
(lp66
F1.0
aF300.314
aF2.0
aF2.0
aF3.0
aF76.66
asVClC(=C)Cl
p67
(lp68
F1.0
aF96.944
aF0.0
aF0.0
aF0.0
aF0.0
asVCc1cccc2c1Cc3ccccc32
p69
(lp70
F1.0
aF180.25
aF0.0
aF3.0
aF0.0
aF0.0
asVCCCCC=O
p71
(lp72
F1.0
aF86.134
aF0.0
aF0.0
aF3.0
aF17.07
asVN(c1ccccc1)c2ccccc2
p73
(lp74
F2.0
aF169.227
aF1.0
aF2.0
aF2.0
aF12.03
asVCN(C)C(=O)SCCCCOc1ccccc1
p75
(lp76
F1.0
aF253.367
aF0.0
aF1.0
aF6.0
aF29.54
asVCCCOP(=S)(OCCC)SCC(=O)N1CCCCC1C
p77
(lp78
F1.0
aF353.49
aF0.0
aF1.0
aF9.0
aF38.77
asVCCCCCCCI
p79
(lp80
F1.0
aF226.101
aF0.0
aF0.0
aF5.0
aF0.0
asVc1c(Cl)cccc1c2ccccc2
p81
(lp82
F1.0
aF188.657
aF0.0
aF2.0
aF1.0
aF0.0
asVOCCCC=C
p83
(lp84
F1.0
aF86.134
aF1.0
aF0.0
aF3.0
aF20.23
asVO=C2NC(=O)C1(CCC1)C(=O)N2
p85
(lp86
F1.0
aF168.152
aF2.0
aF2.0
aF0.0
aF75.27
asVCC(C)C1CCC(C)CC1O
p87
(lp88
F1.0
aF156.269
aF1.0
aF1.0
aF1.0
aF20.23
asVCC(C)OC=O
p89
(lp90
F1.0
aF88.106
aF0.0
aF0.0
aF2.0
aF26.3
asVCCCCCC(C)O
p91
(lp92
F1.0
aF116.204
aF1.0
aF0.0
aF4.0
aF20.23
asVCC(=O)Nc1ccc(Br)cc1
p93
(lp94
F1.0
aF214.062
aF1.0
aF1.0
aF1.0
aF29.1
asVc1ccccc1n2ncc(N)c(Br)c2(=O)
p95
(lp96
F1.0
aF266.098
aF1.0
aF2.0
aF1.0
aF60.91
asVCOC(=O)C1=C(C)NC(=C(C1c2ccccc2N(=O)=O)C(=O)OC)C
p97
(lp98
F1.0
aF346.339
aF1.0
aF2.0
aF4.0
aF107.77
asVc2c(C)cc1nc(C)ccc1c2
p99
(lp100
F1.0
aF157.216
aF0.0
aF2.0
aF0.0
aF12.89
asVCCCCCCC#C
p101
(lp102
F1.0
aF110.2
aF0.0
aF0.0
aF4.0
aF0.0
asVCCC1(C(=O)NC(=O)NC1=O)C2=CCCCC2
p103
(lp104
F1.0
aF236.271
aF2.0
aF2.0
aF2.0
aF75.27
asVc1ccc2c(c1)ccc3c4ccccc4ccc23
p105
(lp106
F2.0
aF228.294
aF0.0
aF4.0
aF0.0
aF0.0
asVCCC(C)n1c(=O)[nH]c(C)c(Br)c1=O
p107
(lp108
F1.0
aF261.119
aF1.0
aF1.0
aF2.0
aF54.86
asVClc1cccc(c1Cl)c2c(Cl)c(Cl)cc(Cl)c2Cl
p109
(lp110
F1.0
aF360.882
aF0.0
aF2.0
aF1.0
aF0.0
asVCc1ccccc1O
p111
(lp112
F1.0
aF108.14
aF1.0
aF1.0
aF0.0
aF20.23
asVCC(C)CCC(C)(C)C
p113
(lp114
F1.0
aF128.259
aF0.0
aF0.0
aF2.0
aF0.0
asVCc1ccc(C)c2ccccc12
p115
(lp116
F1.0
aF156.228
aF0.0
aF2.0
aF0.0
aF0.0
asVCc1cc2c3ccccc3ccc2c4ccccc14
p117
(lp118
F1.0
aF242.321
aF0.0
aF4.0
aF0.0
aF0.0
asVCCCC(=O)C
p119
(lp120
F1.0
aF86.134
aF0.0
aF0.0
aF2.0
aF17.07
asVClc1cc(Cl)c(Cl)c(c1Cl)c2c(Cl)c(Cl)cc(Cl)c2Cl
p121
(lp122
F1.0
aF429.772
aF0.0
aF2.0
aF1.0
aF0.0
asVCCCOC(=O)CC
p123
(lp124
F1.0
aF116.16
aF0.0
aF0.0
aF3.0
aF26.3
asVCC34CC(O)C1(F)C(CCC2=CC(=O)C=CC12C)C3CC(O)C4(O)C(=O)CO
p125
(lp126
F1.0
aF394.439
aF4.0
aF4.0
aF2.0
aF115.06
asVNc1ccc(O)cc1
p127
(lp128
F1.0
aF109.128
aF2.0
aF1.0
aF0.0
aF46.25
asVO=C(Cn1ccnc1N(=O)=O)NCc2ccccc2
p129
(lp130
F1.0
aF260.253
aF1.0
aF2.0
aF5.0
aF90.06
asVOC4=C(C1CCC(CC1)c2ccc(Cl)cc2)C(=O)c3ccccc3C4=O
p131
(lp132
F1.0
aF366.844
aF1.0
aF4.0
aF2.0
aF54.37
asVCCNc1nc(Cl)nc(n1)N(CC)CC
p133
(lp134
F1.0
aF229.715
aF1.0
aF1.0
aF5.0
aF53.94
asVNC(=O)c1cnccn1
p135
(lp136
F1.0
aF123.115
aF1.0
aF1.0
aF1.0
aF68.87
asVCCC(Br)(CC)C(=O)NC(N)=O
p137
(lp138
F1.0
aF237.097
aF2.0
aF0.0
aF3.0
aF72.19
asVClc1ccccc1c2ccccc2Cl
p139
(lp140
F1.0
aF223.102
aF0.0
aF2.0
aF1.0
aF0.0
asVO=C2CN(N=Cc1ccc(o1)N(=O)=O)C(=O)N2
p141
(lp142
F1.0
aF238.159
aF1.0
aF2.0
aF3.0
aF118.05
asVClc2ccc(Oc1ccc(cc1)N(=O)=O)c(Cl)c2
p143
(lp144
F1.0
aF284.098
aF0.0
aF2.0
aF3.0
aF52.37
asVCC1(C)C2CCC1(C)C(=O)C2
p145
(lp146
F1.0
aF152.237
aF0.0
aF2.0
aF0.0
aF17.07
asVO=C1NC(=O)NC(=O)C1(CC=C)c1ccccc1
p147
(lp148
F1.0
aF244.25
aF2.0
aF2.0
aF3.0
aF75.27
asVCCCCC(=O)OCC
p149
(lp150
F1.0
aF130.187
aF0.0
aF0.0
aF4.0
aF26.3
asVCC(C)CCOC(=O)C
p151
(lp152
F1.0
aF130.187
aF0.0
aF0.0
aF3.0
aF26.3
asVO=C1N(COC(=O)CCCCC)C(=O)C(N1)(c2ccccc2)c3ccccc3
p153
(lp154
F1.0
aF380.444
aF1.0
aF3.0
aF8.0
aF75.71
asVClc1cccc(c1)c2cc(Cl)ccc2Cl
p155
(lp156
F1.0
aF257.547
aF0.0
aF2.0
aF1.0
aF0.0
asVCCCBr
p157
(lp158
F1.0
aF122.993
aF0.0
aF0.0
aF1.0
aF0.0
asVCCCC1COC(Cn2cncn2)(O1)c3ccc(Cl)cc3Cl
p159
(lp160
F1.0
aF342.226
aF0.0
aF3.0
aF5.0
aF49.17
asVCOP(=S)(OC)SCC(=O)N(C)C=O
p161
(lp162
F1.0
aF257.273
aF0.0
aF0.0
aF6.0
aF55.84
asVCc1ncnc2nccnc12
p163
(lp164
F1.0
aF146.153
aF0.0
aF2.0
aF0.0
aF51.56
asVNC(=S)N
p165
(lp166
F1.0
aF76.124
aF2.0
aF0.0
aF0.0
aF52.04
asVCc1ccc(C)cc1
p167
(lp168
F1.0
aF106.168
aF0.0
aF1.0
aF0.0
aF0.0
asVCCc1ccccc1CC
p169
(lp170
F1.0
aF134.222
aF0.0
aF1.0
aF2.0
aF0.0
asVClC(Cl)(Cl)C(Cl)(Cl)Cl
p171
(lp172
F1.0
aF236.74
aF0.0
aF0.0
aF0.0
aF0.0
asVCC(C)C(C(=O)OC(C#N)c1cccc(Oc2ccccc2)c1)c3ccc(OC(F)F)cc3
p173
(lp174
F1.0
aF451.469
aF0.0
aF3.0
aF9.0
aF68.55
asVCCCN(=O)=O
p175
(lp176
F1.0
aF89.094
aF0.0
aF0.0
aF2.0
aF43.14
asVCC(C)C1CCC(C)CC1=O
p177
(lp178
F1.0
aF154.253
aF0.0
aF1.0
aF1.0
aF17.07
asVCCN2c1cc(Cl)ccc1NC(=O)c3cccnc23
p179
(lp180
F1.0
aF273.723
aF1.0
aF3.0
aF1.0
aF45.23
asVO=N(=O)c1c(Cl)c(Cl)ccc1
p181
(lp182
F1.0
aF192.001
aF0.0
aF1.0
aF1.0
aF43.14
asVCCCC(C)C1(CC=C)C(=O)NC(=S)NC1=O
p183
(lp184
F1.0
aF254.355
aF2.0
aF1.0
aF5.0
aF58.2
asVc1ccc2c(c1)c3cccc4cccc2c34
p185
(lp186
F2.0
aF202.256
aF0.0
aF4.0
aF0.0
aF0.0
asVCCCOC(C)C
p187
(lp188
F1.0
aF102.177
aF0.0
aF0.0
aF3.0
aF9.23
asVCc1cc(C)c2ccccc2c1
p189
(lp190
F1.0
aF156.228
aF0.0
aF2.0
aF0.0
aF0.0
asVCCC(=C(CC)c1ccc(O)cc1)c2ccc(O)cc2
p191
(lp192
F1.0
aF268.356
aF2.0
aF2.0
aF4.0
aF40.46
asVc1(C#N)c(Cl)c(C#N)c(Cl)c(Cl)c(Cl)1
p193
(lp194
F1.0
aF265.914
aF0.0
aF1.0
aF0.0
aF47.58
asVClc1ccc(Cl)c(c1)c2ccc(Cl)c(Cl)c2
p195
(lp196
F1.0
aF291.992
aF0.0
aF2.0
aF1.0
aF0.0
asVC1OC1c2ccccc2
p197
(lp198
F2.0
aF120.151
aF0.0
aF2.0
aF1.0
aF12.53
asVCC(C)c1ccccc1
p199
(lp200
F1.0
aF120.195
aF0.0
aF1.0
aF1.0
aF0.0
asVCC12CCC3C(CCC4=CC(=O)CCC34C)C2CCC1C(=O)CO
p201
(lp202
F1.0
aF330.468
aF1.0
aF4.0
aF2.0
aF54.37
asVc2(Cl)c(Cl)c(Cl)c1nccnc1c2(Cl)
p203
(lp204
F1.0
aF267.93
aF0.0
aF2.0
aF0.0
aF25.78
asVC1OC(O)C(O)C(O)C1O
p205
(lp206
F1.0
aF150.13
aF4.0
aF1.0
aF0.0
aF90.15
asVClCCl
p207
(lp208
F1.0
aF84.933
aF0.0
aF0.0
aF0.0
aF0.0
asVCCc1cccc2ccccc12
p209
(lp210
F1.0
aF156.228
aF0.0
aF2.0
aF1.0
aF0.0
asVCOC=O
p211
(lp212
F1.0
aF60.052
aF0.0
aF0.0
aF1.0
aF26.3
asVOc1ccccc1N(=O)=O
p213
(lp214
F1.0
aF139.11
aF1.0
aF1.0
aF1.0
aF63.37
asVCc1c[nH]c(=O)[nH]c1=O
p215
(lp216
F1.0
aF126.115
aF2.0
aF1.0
aF0.0
aF65.72
asVCC(C)C
p217
(lp218
F1.0
aF58.124
aF0.0
aF0.0
aF0.0
aF0.0
asVOCC1OC(C(O)C1O)n2cnc3c(O)ncnc23
p219
(lp220
F1.0
aF268.229
aF4.0
aF3.0
aF2.0
aF133.75
asVOc1c(I)cc(C#N)cc1I
p221
(lp222
F1.0
aF370.915
aF1.0
aF1.0
aF0.0
aF44.02
asVOc1ccc(Cl)cc1C(=O)Nc2ccc(cc2Cl)N(=O)=O
p223
(lp224
F1.0
aF327.123
aF2.0
aF2.0
aF3.0
aF92.47
asVCCCCC
p225
(lp226
F1.0
aF72.151
aF0.0
aF0.0
aF2.0
aF0.0
asVc1ccccc1O
p227
(lp228
F1.0
aF94.113
aF1.0
aF1.0
aF0.0
aF20.23
asVNc3ccc2cc1ccccc1cc2c3
p229
(lp230
F1.0
aF193.249
aF1.0
aF3.0
aF0.0
aF26.02
asVCn1cnc2n(C)c(=O)[nH]c(=O)c12
p231
(lp232
F1.0
aF180.167
aF1.0
aF2.0
aF0.0
aF72.68
asVc1ccc2cnccc2c1
p233
(lp234
F2.0
aF129.162
aF0.0
aF2.0
aF0.0
aF12.89
asVCOP(=S)(OC)SCC(=O)N(C(C)C)c1ccc(Cl)cc1
p235
(lp236
F1.0
aF367.86
aF0.0
aF1.0
aF7.0
aF38.77
asVCCCCCCc1ccccc1
p237
(lp238
F1.0
aF162.276
aF0.0
aF1.0
aF5.0
aF0.0
asVClc1ccccc1c2ccccc2
p239
(lp240
F1.0
aF188.657
aF0.0
aF2.0
aF1.0
aF0.0
asVCCCC(=C)C
p241
(lp242
F1.0
aF84.162
aF0.0
aF0.0
aF2.0
aF0.0
asVCC(C)C(C)C(C)C
p243
(lp244
F1.0
aF114.232
aF0.0
aF0.0
aF2.0
aF0.0
asVClc1cc(Cl)c(Cl)c(Cl)c1Cl
p245
(lp246
F1.0
aF250.339
aF0.0
aF1.0
aF0.0
aF0.0
asVOc1cccc(c1)N(=O)=O
p247
(lp248
F1.0
aF139.11
aF1.0
aF1.0
aF1.0
aF63.37
asVCCCCCCCCC=C
p249
(lp250
F1.0
aF140.27
aF0.0
aF0.0
aF7.0
aF0.0
asVCC(=O)OCC(COC(=O)C)OC(=O)C
p251
(lp252
F1.0
aF218.205
aF0.0
aF0.0
aF5.0
aF78.9
asVCCCCc1c(C)nc(nc1O)N(C)C
p253
(lp254
F1.0
aF209.293
aF1.0
aF1.0
aF4.0
aF49.25
asVCC1(C)C(C=C(Cl)Cl)C1C(=O)OC(C#N)c2ccc(F)c(Oc3ccccc3)c2
p255
(lp256
F1.0
aF434.294
aF0.0
aF3.0
aF6.0
aF59.32
asVc1ccncc1
p257
(lp258
F2.0
aF79.102
aF0.0
aF1.0
aF0.0
aF12.89
asVCCCCCCCBr
p259
(lp260
F1.0
aF179.101
aF0.0
aF0.0
aF5.0
aF0.0
asVCc1ccncc1C
p261
(lp262
F1.0
aF107.156
aF0.0
aF1.0
aF0.0
aF12.89
asVCC34CC(O)C1(F)C(CCC2=CC(=O)CCC12C)C3CCC4(O)C(=O)CO
p263
(lp264
F1.0
aF380.456
aF3.0
aF4.0
aF2.0
aF94.83
asVCCSCc1ccccc1OC(=O)NC
p265
(lp266
F1.0
aF225.313
aF1.0
aF1.0
aF4.0
aF38.33
asVCCOC(=O)CC(=O)OCC
p267
(lp268
F1.0
aF160.169
aF0.0
aF0.0
aF4.0
aF52.6
asVCC1=CCC(CC1)C(C)=C
p269
(lp270
F1.0
aF136.238
aF0.0
aF1.0
aF1.0
aF0.0
asVC1Cc2ccccc2C1
p271
(lp272
F2.0
aF118.179
aF0.0
aF2.0
aF0.0
aF0.0
asVCC(C)(C)c1ccc(O)cc1
p273
(lp274
F1.0
aF150.221
aF1.0
aF1.0
aF0.0
aF20.23
asVO=C2NC(=O)C1(CC1)C(=O)N2
p275
(lp276
F1.0
aF154.125
aF2.0
aF2.0
aF0.0
aF75.27
asVClc1cccc(I)c1
p277
(lp278
F1.0
aF238.455
aF0.0
aF1.0
aF0.0
aF0.0
asVBrc1cccc2ccccc12
p279
(lp280
F1.0
aF207.07
aF0.0
aF2.0
aF0.0
aF0.0
asVCC/C=C/C
p281
(lp282
F1.0
aF70.135
aF0.0
aF0.0
aF1.0
aF0.0
asVCc1cccc(C)n1
p283
(lp284
F1.0
aF107.156
aF0.0
aF1.0
aF0.0
aF12.89
asVClC=C(Cl)Cl
p285
(lp286
F1.0
aF131.389
aF0.0
aF0.0
aF0.0
aF0.0
asVNc1cccc2ccccc12
p287
(lp288
F1.0
aF143.189
aF1.0
aF2.0
aF0.0
aF26.02
asVCc1cccc(C)c1
p289
(lp290
F1.0
aF106.168
aF0.0
aF1.0
aF0.0
aF0.0
asVOc2ncc1nccnc1n2
p291
(lp292
F1.0
aF148.125
aF1.0
aF2.0
aF0.0
aF71.79
asVCO
p293
(lp294
F1.0
aF32.042
aF1.0
aF0.0
aF0.0
aF20.23
asVCCC1(CCC(C)C)C(=O)NC(=O)NC1=O
p295
(lp296
F1.0
aF226.276
aF2.0
aF1.0
aF4.0
aF75.27
asVCCC(=O)C
p297
(lp298
F1.0
aF72.107
aF0.0
aF0.0
aF1.0
aF17.07
asVFc1c[nH]c(=O)[nH]c1=O
p299
(lp300
F1.0
aF130.078
aF2.0
aF1.0
aF0.0
aF65.72
asVNc1ncnc2n(ccc12)C3OC(CO)C(O)C3O
p301
(lp302
F1.0
aF266.257
aF4.0
aF3.0
aF2.0
aF126.65
asVOc1cccc(O)c1
p303
(lp304
F1.0
aF110.112
aF2.0
aF1.0
aF0.0
aF40.46
asVCCCCCCO
p305
(lp306
F1.0
aF102.177
aF1.0
aF0.0
aF4.0
aF20.23
asVCCCCCCl
p307
(lp308
F1.0
aF106.596
aF0.0
aF0.0
aF3.0
aF0.0
asVC=CC=C
p309
(lp310
F1.0
aF54.092
aF0.0
aF0.0
aF1.0
aF0.0
asVCCCOC(=O)C
p311
(lp312
F1.0
aF102.133
aF0.0
aF0.0
aF2.0
aF26.3
asVOc2ccc1CCCCc1c2
p313
(lp314
F1.0
aF148.205
aF1.0
aF2.0
aF0.0
aF20.23
asVNC(=O)CCl
p315
(lp316
F1.0
aF93.513
aF1.0
aF0.0
aF1.0
aF43.09
asVCOP(=S)(OC)Oc1cc(Cl)c(I)cc1Cl
p317
(lp318
F1.0
aF413.0
aF0.0
aF1.0
aF4.0
aF27.69
asVCc1ccc(Cl)cc1
p319
(lp320
F1.0
aF126.586
aF0.0
aF1.0
aF0.0
aF0.0
asVCSc1nnc(c(=O)n1N)C(C)(C)C
p321
(lp322
F1.0
aF214.294
aF1.0
aF1.0
aF1.0
aF73.8
asVCc1ccc(OP(=O)(Oc2cccc(C)c2)Oc3ccccc3C)cc1
p323
(lp324
F1.0
aF368.369
aF0.0
aF3.0
aF6.0
aF44.76
asVCCCCCC=O
p325
(lp326
F1.0
aF100.161
aF0.0
aF0.0
aF4.0
aF17.07
asVCCCCOC(=O)c1ccc(N)cc1
p327
(lp328
F1.0
aF193.246
aF1.0
aF1.0
aF4.0
aF52.32
asVO2c1cc(C)ccc1N(C)C(=O)c3cc(N)cnc23
p329
(lp330
F1.0
aF255.277
aF1.0
aF3.0
aF0.0
aF68.45
asVCC(C)=CCC/C(C)=C\u005cCO
p331
(lp332
F1.0
aF154.253
aF1.0
aF0.0
aF4.0
aF20.23
asVClc1ccc(cc1)c2ccccc2Cl
p333
(lp334
F1.0
aF223.102
aF0.0
aF2.0
aF1.0
aF0.0
asVO=C1N(COC(=O)CCCCCCC)C(=O)C(N1)(c2ccccc2)c3ccccc3
p335
(lp336
F1.0
aF408.498
aF1.0
aF3.0
aF10.0
aF75.71
asVCCN(=O)=O
p337
(lp338
F1.0
aF75.067
aF0.0
aF0.0
aF1.0
aF43.14
asVCCN(CC(C)=C)c1c(cc(cc1N(=O)=O)C(F)(F)F)N(=O)=O
p339
(lp340
F1.0
aF333.266
aF0.0
aF1.0
aF6.0
aF89.52
asVClc1ccc(Cl)c(Cl)c1Cl
p341
(lp342
F1.0
aF215.894
aF0.0
aF1.0
aF0.0
aF0.0
asVCCCC(C)(COC(N)=O)COC(N)=O
p343
(lp344
F1.0
aF218.253
aF2.0
aF0.0
aF6.0
aF104.64
asVCC(=O)C3CCC4C2CC=C1CC(O)CCC1(C)C2CCC34C
p345
(lp346
F1.0
aF316.485
aF1.0
aF4.0
aF1.0
aF37.3
asVCI
p347
(lp348
F1.0
aF141.939
aF0.0
aF0.0
aF0.0
aF0.0
asVCC1CC(C)C(=O)C(C1)C(O)CC2CC(=O)NC(=O)C2
p349
(lp350
F1.0
aF281.352
aF2.0
aF2.0
aF3.0
aF83.47
asVO=C1N(COC(=O)CCCCCC)C(=O)C(N1)(c2ccccc2)c3ccccc3
p351
(lp352
F1.0
aF394.471
aF1.0
aF3.0
aF9.0
aF75.71
asVCC1=CC(=O)CC(C)(C)C1
p353
(lp354
F1.0
aF138.21
aF0.0
aF1.0
aF0.0
aF17.07
asVO=C1NC(=O)NC(=O)C1(CC)C(C)CC
p355
(lp356
F1.0
aF212.249
aF2.0
aF1.0
aF3.0
aF75.27
asVCCCCC(=O)CCCC
p357
(lp358
F1.0
aF142.242
aF0.0
aF0.0
aF6.0
aF17.07
asVCCC1(CCC(=O)NC1=O)c2ccccc2
p359
(lp360
F1.0
aF217.268
aF1.0
aF2.0
aF2.0
aF46.17
asVCCC(C)CC
p361
(lp362
F1.0
aF86.178
aF0.0
aF0.0
aF2.0
aF0.0
asVCCOc1ccc(cc1)C(C)(C)COCc3cccc(Oc2ccccc2)c3
p363
(lp364
F1.0
aF376.496
aF0.0
aF3.0
aF9.0
aF27.69
asVCc1ccccc1n3c(C)nc2ccccc2c3=O
p365
(lp366
F1.0
aF250.301
aF0.0
aF3.0
aF1.0
aF34.89
asVClCC#N
p367
(lp368
F1.0
aF75.498
aF0.0
aF0.0
aF0.0
aF23.79
asVCCOP(=S)(CC)Oc1cc(Cl)c(Cl)cc1Cl
p369
(lp370
F1.0
aF333.604
aF0.0
aF1.0
aF5.0
aF18.46
asVCC12CCC(=O)C=C1CCC3C2CCC4(C)C3CCC4(O)C#C
p371
(lp372
F1.0
aF312.453
aF1.0
aF4.0
aF0.0
aF37.3
asVc1ccnnc1
p373
(lp374
F2.0
aF80.09
aF0.0
aF1.0
aF0.0
aF25.78
asVClc1cc(Cl)c(Cl)c(Cl)c1
p375
(lp376
F1.0
aF215.894
aF0.0
aF1.0
aF0.0
aF0.0
asVC1C(O)CCC2(C)CC3CCC4(C)C5(C)CC6OCC(C)CC6OC5CC4C3C=C21
p377
(lp378
F1.0
aF414.63
aF1.0
aF6.0
aF0.0
aF38.69
asVNc1ccccc1O
p379
(lp380
F1.0
aF109.128
aF2.0
aF1.0
aF0.0
aF46.25
asVCCCCCCCCC(=O)OCC
p381
(lp382
F1.0
aF186.295
aF0.0
aF0.0
aF8.0
aF26.3
asVCOCC(=O)N(C(C)C(=O)OC)c1c(C)cccc1C
p383
(lp384
F1.0
aF279.336
aF0.0
aF1.0
aF5.0
aF55.84
asVCNC(=O)Oc1ccccc1OC(C)C
p385
(lp386
F1.0
aF209.245
aF1.0
aF1.0
aF3.0
aF47.56
asVCCC(C)Cl
p387
(lp388
F1.0
aF92.569
aF0.0
aF0.0
aF1.0
aF0.0
asVOc1ccc2ccccc2c1
p389
(lp390
F1.0
aF144.173
aF1.0
aF2.0
aF0.0
aF20.23
asVCC(C)Oc1cc(c(Cl)cc1Cl)n2nc(oc2=O)C(C)(C)C
p391
(lp392
F1.0
aF345.226
aF0.0
aF2.0
aF3.0
aF57.26
asVCCCCC#C
p393
(lp394
F1.0
aF82.146
aF0.0
aF0.0
aF2.0
aF0.0
asVCCCCCCCC#C
p395
(lp396
F1.0
aF124.227
aF0.0
aF0.0
aF5.0
aF0.0
asVCc1ccccc1Cl
p397
(lp398
F1.0
aF126.586
aF0.0
aF1.0
aF0.0
aF0.0
asVCC(C)OC(C)C
p399
(lp400
F1.0
aF102.177
aF0.0
aF0.0
aF2.0
aF9.23
asVNc1ccc(cc1)S(=O)(=O)c2ccc(N)cc2
p401
(lp402
F1.0
aF248.307
aF2.0
aF2.0
aF2.0
aF86.18
asVCNN
p403
(lp404
F1.0
aF46.073
aF2.0
aF0.0
aF0.0
aF38.05
asVCC#C
p405
(lp406
F1.0
aF40.065
aF0.0
aF0.0
aF0.0
aF0.0
asVCCOP(=S)(OCC)ON=C(C#N)c1ccccc1
p407
(lp408
F1.0
aF298.304
aF0.0
aF1.0
aF7.0
aF63.84
asVCCNP(=S)(OC)OC(=CC(=O)OC(C)C)C
p409
(lp410
F1.0
aF281.314
aF1.0
aF0.0
aF7.0
aF56.79
asVC=CC=O
p411
(lp412
F1.0
aF56.064
aF0.0
aF0.0
aF1.0
aF17.07
asVO=c1[nH]cnc2nc[nH]c12
p413
(lp414
F1.0
aF136.114
aF2.0
aF2.0
aF0.0
aF74.43
asVOc2ccc1ncccc1c2
p415
(lp416
F1.0
aF145.161
aF1.0
aF2.0
aF0.0
aF33.12
asVFc1ccccc1
p417
(lp418
F1.0
aF96.104
aF0.0
aF1.0
aF0.0
aF0.0
asVCCCCl
p419
(lp420
F1.0
aF78.542
aF0.0
aF0.0
aF1.0
aF0.0
asVCCOC(=O)C
p421
(lp422
F1.0
aF88.106
aF0.0
aF0.0
aF1.0
aF26.3
asVCCCC(C)(C)C
p423
(lp424
F1.0
aF100.205
aF0.0
aF0.0
aF1.0
aF0.0
asVCc1cc(C)c(C)c(C)c1C
p425
(lp426
F1.0
aF148.249
aF0.0
aF1.0
aF0.0
aF0.0
asVCC12CCC(CC1)C(C)(C)O2
p427
(lp428
F1.0
aF154.253
aF0.0
aF3.0
aF0.0
aF9.23
asVCCCCOC(=O)CCCCCCCCC(=O)OCCCC
p429
(lp430
F1.0
aF314.466
aF0.0
aF0.0
aF15.0
aF52.6
asVClc1ccc(cc1)c2ccc(Cl)cc2
p431
(lp432
F1.0
aF223.102
aF0.0
aF2.0
aF1.0
aF0.0
asVCc1cccnc1C
p433
(lp434
F1.0
aF107.156
aF0.0
aF1.0
aF0.0
aF12.89
asVCC(=C)C1CC=C(C)C(=O)C1
p435
(lp436
F1.0
aF150.221
aF0.0
aF1.0
aF1.0
aF17.07
asVCCOP(=S)(OCC)SCSc1ccc(Cl)cc1
p437
(lp438
F1.0
aF342.875
aF0.0
aF1.0
aF8.0
aF18.46
asVCOc1cc(cc(OC)c1O)C6C2C(COC2=O)C(OC4OC3COC(C)OC3C(O)C4O)c7cc5OCOc5cc67
p439
(lp440
F1.0
aF588.562
aF3.0
aF7.0
aF5.0
aF160.83
asVc1cc2cccc3c4cccc5cccc(c(c1)c23)c54
p441
(lp442
F2.0
aF252.316
aF0.0
aF5.0
aF0.0
aF0.0
asVCc1ccc(cc1N(=O)=O)N(=O)=O
p443
(lp444
F1.0
aF182.135
aF0.0
aF1.0
aF2.0
aF86.28
asVc1c(Br)ccc2ccccc12
p445
(lp446
F1.0
aF207.07
aF0.0
aF2.0
aF0.0
aF0.0
asVCNC(=O)Oc1cccc(N=CN(C)C)c1
p447
(lp448
F1.0
aF221.26
aF1.0
aF1.0
aF3.0
aF53.93
asVCOc2cnc1ncncc1n2
p449
(lp450
F1.0
aF162.152
aF0.0
aF2.0
aF1.0
aF60.79
asVCc3ccnc4N(C1CC1)c2ncccc2C(=O)Nc34
p451
(lp452
F1.0
aF266.304
aF1.0
aF4.0
aF1.0
aF58.12
asVCCOP(=S)(OCC)Oc1nc(Cl)n(n1)C(C)C
p453
(lp454
F1.0
aF313.747
aF0.0
aF1.0
aF7.0
aF58.4
asVCC(=C)C=C
p455
(lp456
F1.0
aF68.119
aF0.0
aF0.0
aF1.0
aF0.0
asVCC(C)=CCCC(O)(C)C=C
p457
(lp458
F1.0
aF154.253
aF1.0
aF0.0
aF4.0
aF20.23
asVCOP(=S)(OC)Oc1ccc(SC)c(C)c1
p459
(lp460
F1.0
aF278.335
aF0.0
aF1.0
aF5.0
aF27.69
asVOC1CCCCC1
p461
(lp462
F1.0
aF100.161
aF1.0
aF1.0
aF0.0
aF20.23
asVO=C1NC(=O)NC(=O)C1(C)CC=C
p463
(lp464
F1.0
aF182.179
aF2.0
aF1.0
aF2.0
aF75.27
asVCC34CCC1C(CCC2CC(O)CCC12C)C3CCC4=O
p465
(lp466
F1.0
aF290.447
aF1.0
aF4.0
aF0.0
aF37.3
asVOCC(O)C(O)C(O)C(O)CO
p467
(lp468
F1.0
aF182.172
aF6.0
aF0.0
aF5.0
aF121.38
asVCc1ccc(cc1)c2ccccc2
p469
(lp470
F1.0
aF168.239
aF0.0
aF2.0
aF1.0
aF0.0
asVCCNc1nc(Cl)nc(NC(C)C)n1
p471
(lp472
F1.0
aF215.688
aF2.0
aF1.0
aF4.0
aF62.73
asVNC(=S)Nc1ccccc1
p473
(lp474
F1.0
aF152.222
aF2.0
aF1.0
aF1.0
aF38.05
asVCCCC(=O)CCC
p475
(lp476
F1.0
aF114.188
aF0.0
aF0.0
aF4.0
aF17.07
asVCC(=O)C(C)(C)C
p477
(lp478
F1.0
aF100.161
aF0.0
aF0.0
aF0.0
aF17.07
asVOc1ccc(Cl)cc1
p479
(lp480
F1.0
aF128.558
aF1.0
aF1.0
aF0.0
aF20.23
asVO=C1CCCCC1
p481
(lp482
F1.0
aF98.145
aF0.0
aF1.0
aF0.0
aF17.07
asVCc1cccc(N)c1
p483
(lp484
F1.0
aF107.156
aF1.0
aF1.0
aF0.0
aF26.02
asVClC(Cl)(Cl)C#N
p485
(lp486
F1.0
aF144.388
aF0.0
aF0.0
aF0.0
aF23.79
asVCNc2cnn(c1cccc(c1)C(F)(F)F)c(=O)c2Cl
p487
(lp488
F1.0
aF303.671
aF1.0
aF2.0
aF2.0
aF46.92
asVCCCCCCCCC(=O)C
p489
(lp490
F1.0
aF156.269
aF0.0
aF0.0
aF7.0
aF17.07
asVCCN(CC)c1nc(Cl)nc(NC(C)C)n1
p491
(lp492
F1.0
aF243.742
aF1.0
aF1.0
aF5.0
aF53.94
asVCCOC(=O)c1ccc(N)cc1
p493
(lp494
F1.0
aF165.192
aF1.0
aF1.0
aF2.0
aF52.32
asVClc1ccc(Cl)c(Cl)c1
p495
(lp496
F1.0
aF181.449
aF0.0
aF1.0
aF0.0
aF0.0
asVCc3nnc4CN=C(c1ccccc1Cl)c2cc(Cl)ccc2n34
p497
(lp498
F1.0
aF343.217
aF0.0
aF4.0
aF1.0
aF43.07
asVOc1ccccc1O
p499
(lp500
F1.0
aF110.112
aF2.0
aF1.0
aF0.0
aF40.46
asVCCN2c1ncccc1N(C)C(=O)c3cccnc23
p501
(lp502
F1.0
aF254.293
aF0.0
aF3.0
aF1.0
aF49.33
asVCSC
p503
(lp504
F1.0
aF62.137
aF0.0
aF0.0
aF0.0
aF0.0
asVCc1ccccc1Br
p505
(lp506
F1.0
aF171.037
aF0.0
aF1.0
aF0.0
aF0.0
asVCCOC(=O)N
p507
(lp508
F1.0
aF89.094
aF1.0
aF0.0
aF1.0
aF52.32
asVCC(=O)OC3(CCC4C2C=C(C)C1=CC(=O)CCC1(C)C2CCC34C)C(C)=O
p509
(lp510
F1.0
aF384.516
aF0.0
aF4.0
aF2.0
aF60.44
asVCC(C)C(O)C(C)C
p511
(lp512
F1.0
aF116.204
aF1.0
aF0.0
aF2.0
aF20.23
asVc1ccc2ccccc2c1
p513
(lp514
F2.0
aF128.174
aF0.0
aF2.0
aF0.0
aF0.0
asVCCNc1ccccc1
p515
(lp516
F1.0
aF121.183
aF1.0
aF1.0
aF2.0
aF12.03
asVO=C1NC(=O)C(N1)(c2ccccc2)c3ccccc3
p517
(lp518
F1.0
aF252.273
aF2.0
aF3.0
aF2.0
aF58.2
asVCc1c2ccccc2c(C)c3ccc4ccccc4c13
p519
(lp520
F1.0
aF256.348
aF0.0
aF4.0
aF0.0
aF0.0
asVCCOP(=S)(OCC)SC(CCl)N1C(=O)c2ccccc2C1=O
p521
(lp522
F1.0
aF393.854
aF0.0
aF2.0
aF8.0
aF55.84
asVCOc1ccc(cc1)C(c2ccc(OC)cc2)C(Cl)(Cl)Cl
p523
(lp524
F1.0
aF345.653
aF0.0
aF2.0
aF4.0
aF18.46
asVFc1cccc(F)c1C(=O)NC(=O)Nc2cc(Cl)c(F)c(Cl)c2F
p525
(lp526
F1.0
aF381.112
aF2.0
aF2.0
aF2.0
aF58.2
asVO=C1N(COC(=O)CCCC)C(=O)C(N1)(c2ccccc2)c3ccccc3
p527
(lp528
F1.0
aF366.417
aF1.0
aF3.0
aF7.0
aF75.71
asVCN(C)C(=O)Nc1ccc(Cl)cc1
p529
(lp530
F1.0
aF198.653
aF1.0
aF1.0
aF1.0
aF32.34
asVOC(Cn1cncn1)(c2ccc(F)cc2)c3ccccc3F
p531
(lp532
F1.0
aF301.296
aF1.0
aF3.0
aF4.0
aF50.94
asVCC(=O)OCC(=O)C3(O)C(CC4C2CCC1=CC(=O)C=CC1(C)C2(F)C(O)CC34C)OC(C)=O
p533
(lp534
F1.0
aF478.513
aF2.0
aF4.0
aF4.0
aF127.2
asVCCCCBr
p535
(lp536
F1.0
aF137.02
aF0.0
aF0.0
aF2.0
aF0.0
asVBrc1cc(Br)c(Br)cc1Br
p537
(lp538
F1.0
aF393.698
aF0.0
aF1.0
aF0.0
aF0.0
asVCC(C)CC(=O)C
p539
(lp540
F1.0
aF100.161
aF0.0
aF0.0
aF2.0
aF17.07
asVCCSC(=O)N(CC)C1CCCCC1
p541
(lp542
F1.0
aF215.362
aF0.0
aF1.0
aF3.0
aF20.31
asVCOc1ccc(Cl)cc1
p543
(lp544
F1.0
aF142.585
aF0.0
aF1.0
aF1.0
aF9.23
asVCC1(C)C(C=C(Br)Br)C1C(=O)OC(C#N)c2cccc(Oc3ccccc3)c2
p545
(lp546
F1.0
aF505.206
aF0.0
aF3.0
aF6.0
aF59.32
asVCCC(C)C1(CC=C)C(=O)NC(=O)NC1=O
p547
(lp548
F1.0
aF224.26
aF2.0
aF1.0
aF4.0
aF75.27
asVCOP(=S)(OC)Oc1ccc(N(=O)=O)c(C)c1
p549
(lp550
F1.0
aF277.238
aF0.0
aF1.0
aF5.0
aF70.83
asVIc1cccc2ccccc12
p551
(lp552
F1.0
aF254.07
aF0.0
aF2.0
aF0.0
aF0.0
asVCCS
p553
(lp554
F1.0
aF62.137
aF1.0
aF0.0
aF0.0
aF0.0
asVClCC(Cl)Cl
p555
(lp556
F1.0
aF133.405
aF0.0
aF0.0
aF1.0
aF0.0
asVCN(C)C(=O)Oc1cc(C)nn1c2ccccc2
p557
(lp558
F1.0
aF245.282
aF0.0
aF2.0
aF2.0
aF47.36
asVNC(=O)c1ccccc1O
p559
(lp560
F1.0
aF137.138
aF2.0
aF1.0
aF1.0
aF63.32
asVCc1ccccc1N(=O)=O
p561
(lp562
F1.0
aF137.138
aF0.0
aF1.0
aF1.0
aF43.14
asVO=C1NC(=O)NC(=O)C1(C(C)C)C(C)C
p563
(lp564
F1.0
aF212.249
aF2.0
aF1.0
aF2.0
aF75.27
asVCCc1ccccc1C
p565
(lp566
F1.0
aF120.195
aF0.0
aF1.0
aF1.0
aF0.0
asVCCCCCCCCl
p567
(lp568
F1.0
aF134.65
aF0.0
aF0.0
aF5.0
aF0.0
asVO=C1NC(=O)NC(=O)C1(CC)CC
p569
(lp570
F1.0
aF184.195
aF2.0
aF1.0
aF2.0
aF75.27
asVC(Cc1ccccc1)c2ccccc2
p571
(lp572
F2.0
aF182.266
aF0.0
aF2.0
aF3.0
aF0.0
asVClC(Cl)C(Cl)Cl
p573
(lp574
F1.0
aF167.85
aF0.0
aF0.0
aF1.0
aF0.0
asVCCN2c1cc(OC)cc(C)c1NC(=O)c3cccnc23
p575
(lp576
F1.0
aF283.331
aF1.0
aF3.0
aF2.0
aF54.46
asVCc1ccc2c(ccc3ccccc32)c1
p577
(lp578
F1.0
aF192.261
aF0.0
aF3.0
aF0.0
aF0.0
asVCCCCOC(=O)c1ccccc1C(=O)OCCCC
p579
(lp580
F1.0
aF278.348
aF0.0
aF1.0
aF8.0
aF52.6
asVCOc1c(O)c(Cl)c(Cl)c(Cl)c1Cl
p581
(lp582
F1.0
aF261.919
aF1.0
aF1.0
aF1.0
aF29.46
asVCCN(CC)C(=O)C(=CCOP(=O)(OC)OC)Cl
p583
(lp584
F1.0
aF299.691
aF0.0
aF0.0
aF8.0
aF65.07
asVCC34CCC1C(=CCc2cc(O)ccc12)C3CCC4=O
p585
(lp586
F1.0
aF268.356
aF1.0
aF4.0
aF0.0
aF37.3
asVCCOC(=O)c1ccccc1S(=O)(=O)NN(C=O)c2nc(Cl)cc(OC)n2
p587
(lp588
F1.0
aF414.827
aF1.0
aF2.0
aF8.0
aF127.79
asVCOc1ccc(cc1)N(=O)=O
p589
(lp590
F1.0
aF153.137
aF0.0
aF1.0
aF2.0
aF52.37
asVCCCCCCCl
p591
(lp592
F1.0
aF120.623
aF0.0
aF0.0
aF4.0
aF0.0
asVClc1cc(c(Cl)c(Cl)c1Cl)c2cc(Cl)c(Cl)c(Cl)c2Cl
p593
(lp594
F1.0
aF429.772
aF0.0
aF2.0
aF1.0
aF0.0
asVOCC1OC(CO)(OC2OC(COC3OC(CO)C(O)C(O)C3O)C(O)C(O)C2O)C(O)C1O
p595
(lp596
F1.0
aF504.438
aF11.0
aF3.0
aF8.0
aF268.68
asVCCCCCCCCCCCCCCCCCCCCCCCCCC
p597
(lp598
F1.0
aF366.718
aF0.0
aF0.0
aF23.0
aF0.0
asVCCN2c1ccccc1N(C)C(=O)c3cccnc23
p599
(lp600
F1.0
aF253.305
aF0.0
aF3.0
aF1.0
aF36.44
asVCC(Cl)Cl
p601
(lp602
F1.0
aF98.96
aF0.0
aF0.0
aF0.0
aF0.0
asVNc1ccc(cc1)S(N)(=O)=O
p603
(lp604
F1.0
aF172.209
aF2.0
aF1.0
aF1.0
aF86.18
asVCCCN(CCC)c1c(cc(cc1N(=O)=O)C(C)C)N(=O)=O
p605
(lp606
F1.0
aF309.366
aF0.0
aF1.0
aF8.0
aF89.52
asVClC1C(Cl)C(Cl)C(Cl)C(Cl)C1Cl
p607
(lp608
F1.0
aF290.832
aF0.0
aF1.0
aF0.0
aF0.0
asVCCOP(=S)(NC(C)C)Oc1ccccc1C(=O)OC(C)C
p609
(lp610
F1.0
aF345.401
aF1.0
aF1.0
aF8.0
aF56.79
asVClc1cccc(Cl)c1Cl
p611
(lp612
F1.0
aF181.449
aF0.0
aF1.0
aF0.0
aF0.0
asVClC(Cl)(Cl)Cl
p613
(lp614
F1.0
aF153.823
aF0.0
aF0.0
aF0.0
aF0.0
asVO=N(=O)c1cc(Cl)c(Cl)cc1
p615
(lp616
F1.0
aF192.001
aF0.0
aF1.0
aF1.0
aF43.14
asVOC1CCCCCCC1
p617
(lp618
F1.0
aF128.215
aF1.0
aF1.0
aF0.0
aF20.23
asVCC1(O)CCC2C3CCC4=CC(=O)CCC4(C)C3CCC21C
p619
(lp620
F1.0
aF302.458
aF1.0
aF4.0
aF0.0
aF37.3
asVCCOc1ccc(NC(N)=O)cc1
p621
(lp622
F1.0
aF180.207
aF2.0
aF1.0
aF3.0
aF64.35
asVC/C1CCC(\u005cC)CC1
p623
(lp624
F1.0
aF112.216
aF0.0
aF1.0
aF0.0
aF0.0
asVc1cnc2c(c1)ccc3ncccc23
p625
(lp626
F2.0
aF180.21
aF0.0
aF3.0
aF0.0
aF25.78
asVCOC(C)(C)C
p627
(lp628
F1.0
aF88.15
aF0.0
aF0.0
aF0.0
aF9.23
asVCOc1ccc(C=CC)cc1
p629
(lp630
F1.0
aF148.205
aF0.0
aF1.0
aF2.0
aF9.23
asVCCCCCCCCCCCCCCCCO
p631
(lp632
F1.0
aF242.447
aF1.0
aF0.0
aF14.0
aF20.23
asVO=c1cc[nH]c(=O)[nH]1
p633
(lp634
F1.0
aF112.088
aF2.0
aF1.0
aF0.0
aF65.72
asVNc1ncnc2nc[nH]c12
p635
(lp636
F1.0
aF135.13
aF2.0
aF2.0
aF0.0
aF80.48
asVClc1cc(Cl)c(cc1Cl)c2cccc(Cl)c2Cl
p637
(lp638
F1.0
aF326.437
aF0.0
aF2.0
aF1.0
aF0.0
asVCOc1ccc(cc1)C(O)(C2CC2)c3cncnc3
p639
(lp640
F1.0
aF256.305
aF1.0
aF3.0
aF4.0
aF55.24
asVc1ccc2c(c1)c3cccc4c3c2cc5ccccc54
p641
(lp642
F2.0
aF252.316
aF0.0
aF5.0
aF0.0
aF0.0
asVO=C(Nc1ccccc1)Nc2ccccc2
p643
(lp644
F1.0
aF212.252
aF2.0
aF2.0
aF2.0
aF41.13
asVCCC1(C(=O)NC(=O)NC1=O)c2ccccc2
p645
(lp646
F1.0
aF232.239
aF2.0
aF2.0
aF2.0
aF75.27
asVClc1ccc(cc1)c2cccc(Cl)c2Cl
p647
(lp648
F1.0
aF257.547
aF0.0
aF2.0
aF1.0
aF0.0
asVCC(C)c1ccc(NC(=O)N(C)C)cc1
p649
(lp650
F1.0
aF206.289
aF1.0
aF1.0
aF2.0
aF32.34
asVCCN(CC)C(=O)CSc1ccc(Cl)nn1
p651
(lp652
F1.0
aF259.762
aF0.0
aF1.0
aF5.0
aF46.09
asVCCC(C)(C)CO
p653
(lp654
F1.0
aF102.177
aF1.0
aF0.0
aF2.0
aF20.23
asVCCCOC(=O)CCC
p655
(lp656
F1.0
aF130.187
aF0.0
aF0.0
aF4.0
aF26.3
asVCc1c(cc(cc1N(=O)=O)N(=O)=O)N(=O)=O
p657
(lp658
F1.0
aF227.132
aF0.0
aF1.0
aF3.0
aF129.42
asVCC(C)OP(=S)(OC(C)C)SCCNS(=O)(=O)c1ccccc1
p659
(lp660
F1.0
aF397.524
aF1.0
aF1.0
aF10.0
aF64.63
asVC1CCCCCC1
p661
(lp662
F2.0
aF98.189
aF0.0
aF1.0
aF0.0
aF0.0
asVCCCOC=O
p663
(lp664
F1.0
aF88.106
aF0.0
aF0.0
aF3.0
aF26.3
asVCC(C)c1ccccc1C
p665
(lp666
F1.0
aF134.222
aF0.0
aF1.0
aF1.0
aF0.0
asVNc1cccc(Cl)c1
p667
(lp668
F1.0
aF127.574
aF1.0
aF1.0
aF0.0
aF26.02
asVCC(C)CC(C)C
p669
(lp670
F1.0
aF100.205
aF0.0
aF0.0
aF2.0
aF0.0
asVo1c2ccccc2c3ccccc13
p671
(lp672
F2.0
aF168.195
aF0.0
aF3.0
aF0.0
aF13.14
asVCCOC2Oc1ccc(OS(C)(=O)=O)cc1C2(C)C
p673
(lp674
F1.0
aF286.349
aF0.0
aF2.0
aF4.0
aF61.83
asVCN(C)C(=O)Nc1cccc(c1)C(F)(F)F
p675
(lp676
F1.0
aF232.205
aF1.0
aF1.0
aF1.0
aF32.34
asVc3ccc2nc1ccccc1cc2c3
p677
(lp678
F2.0
aF179.222
aF0.0
aF3.0
aF0.0
aF12.89
asVCC12CC(=O)C3C(CCC4=CC(=O)CCC34C)C2CCC1(O)C(=O)CO
p679
(lp680
F1.0
aF360.45
aF2.0
aF4.0
aF2.0
aF91.67
asVOCC1OC(O)C(O)C(O)C1O
p681
(lp682
F1.0
aF180.156
aF5.0
aF1.0
aF1.0
aF110.38
asVCc1cccc(O)c1
p683
(lp684
F1.0
aF108.14
aF1.0
aF1.0
aF0.0
aF20.23
asVCC2Cc1ccccc1N2NC(=O)c3ccc(Cl)c(c3)S(N)(=O)=O
p685
(lp686
F1.0
aF365.842
aF2.0
aF3.0
aF3.0
aF92.5
asVCCC(C)C(=O)OC2CC(C)C=C3C=CC(C)C(CCC1CC(O)CC(=O)O1)C23
p687
(lp688
F1.0
aF404.547
aF1.0
aF3.0
aF6.0
aF72.83
asVO=N(=O)c1ccc(cc1)N(=O)=O
p689
(lp690
F1.0
aF168.108
aF0.0
aF1.0
aF2.0
aF86.28
asVCCC1(C(=O)NC(=O)NC1=O)C2=CCC3CCC2C3
p691
(lp692
F1.0
aF262.309
aF2.0
aF3.0
aF2.0
aF75.27
asVCCCCCCCCCC(=O)OCC
p693
(lp694
F1.0
aF200.322
aF0.0
aF0.0
aF9.0
aF26.3
asVCN(C)C(=O)Nc1ccccc1
p695
(lp696
F1.0
aF164.208
aF1.0
aF1.0
aF1.0
aF32.34
asVCCCOCC
p697
(lp698
F1.0
aF88.15
aF0.0
aF0.0
aF3.0
aF9.23
asVCC(C)O
p699
(lp700
F1.0
aF60.096
aF1.0
aF0.0
aF0.0
aF20.23
asVCc1ccc2ccccc2c1
p701
(lp702
F1.0
aF142.201
aF0.0
aF2.0
aF0.0
aF0.0
asVClC(Br)Br
p703
(lp704
F1.0
aF208.28
aF0.0
aF0.0
aF0.0
aF0.0
asVCCC(C(CC)c1ccc(O)cc1)c2ccc(O)cc2
p705
(lp706
F1.0
aF270.372
aF2.0
aF2.0
aF5.0
aF40.46
asVCCOC(=O)CC(SP(=S)(OC)OC)C(=O)OCC
p707
(lp708
F1.0
aF330.364
aF0.0
aF0.0
aF9.0
aF71.06
asVClCc1ccccc1
p709
(lp710
F1.0
aF126.586
aF0.0
aF1.0
aF1.0
aF0.0
asVC/C=C/C=O
p711
(lp712
F1.0
aF70.091
aF0.0
aF0.0
aF1.0
aF17.07
asVCON(C)C(=O)Nc1ccc(Br)c(Cl)c1
p713
(lp714
F1.0
aF293.548
aF1.0
aF1.0
aF2.0
aF41.57
asVCc1c2ccccc2c(C)c3ccccc13
p715
(lp716
F1.0
aF206.288
aF0.0
aF3.0
aF0.0
aF0.0
asVCCCCCC(=O)OC
p717
(lp718
F1.0
aF130.187
aF0.0
aF0.0
aF4.0
aF26.3
asVCN(C)C(=O)Nc1ccc(c(Cl)c1)n2nc(oc2=O)C(C)(C)C
p719
(lp720
F1.0
aF338.795
aF1.0
aF2.0
aF2.0
aF80.37
asVCC(=O)Nc1ccc(F)cc1
p721
(lp722
F1.0
aF153.156
aF1.0
aF1.0
aF1.0
aF29.1
asVCCc1cccc(CC)c1N(COC)C(=O)CCl
p723
(lp724
F1.0
aF269.772
aF0.0
aF1.0
aF6.0
aF29.54
asVC1CCC=CC1
p725
(lp726
F2.0
aF82.146
aF0.0
aF1.0
aF0.0
aF0.0
asVCC12CC(O)C3C(CCC4=CC(=O)CCC34C)C2CCC1(O)C(=O)CO
p727
(lp728
F1.0
aF362.466
aF3.0
aF4.0
aF2.0
aF94.83
asVc1cncnc1
p729
(lp730
F2.0
aF80.09
aF0.0
aF1.0
aF0.0
aF25.78
asVClc1ccc(cc1)N(=O)=O
p731
(lp732
F1.0
aF157.556
aF0.0
aF1.0
aF1.0
aF43.14
asVCCC(=O)OC
p733
(lp734
F1.0
aF88.106
aF0.0
aF0.0
aF1.0
aF26.3
asVClc1ccccc1N(=O)=O
p735
(lp736
F1.0
aF157.556
aF0.0
aF1.0
aF1.0
aF43.14
asVCCCCN(C)C(=O)Nc1ccc(Cl)c(Cl)c1
p737
(lp738
F1.0
aF275.179
aF1.0
aF1.0
aF4.0
aF32.34
asVCN1CC(O)N(C1=O)c2nnc(s2)C(C)(C)C
p739
(lp740
F1.0
aF256.331
aF1.0
aF2.0
aF1.0
aF69.56
asVO=N(=O)c1ccccc1
p741
(lp742
F1.0
aF123.111
aF0.0
aF1.0
aF1.0
aF43.14
asVIc1ccccc1
p743
(lp744
F1.0
aF204.01
aF0.0
aF1.0
aF0.0
aF0.0
asVCC2Nc1cc(Cl)c(cc1C(=O)N2c3ccccc3C)S(N)(=O)=O
p745
(lp746
F1.0
aF365.842
aF2.0
aF3.0
aF2.0
aF92.5
asVCOc1ccccc1OCC(O)COC(N)=O
p747
(lp748
F1.0
aF241.243
aF2.0
aF1.0
aF6.0
aF91.01
asVCCCCOCN(C(=O)CCl)c1c(CC)cccc1CC
p749
(lp750
F1.0
aF311.853
aF0.0
aF1.0
aF9.0
aF29.54
asVOc1cccc(Cl)c1Cl
p751
(lp752
F1.0
aF163.003
aF1.0
aF1.0
aF0.0
aF20.23
asVCCCC(=O)OC
p753
(lp754
F1.0
aF102.133
aF0.0
aF0.0
aF2.0
aF26.3
asVCCC(=O)Nc1ccc(Cl)c(Cl)c1
p755
(lp756
F1.0
aF218.083
aF1.0
aF1.0
aF2.0
aF29.1
asVNc3nc(N)c2nc(c1ccccc1)c(N)nc2n3
p757
(lp758
F1.0
aF253.269
aF3.0
aF3.0
aF1.0
aF129.62
asVCCCCCC(=O)OCC
p759
(lp760
F1.0
aF144.214
aF0.0
aF0.0
aF5.0
aF26.3
asVOCC(O)C2OC1OC(OC1C2O)C(Cl)(Cl)Cl
p761
(lp762
F1.0
aF309.529
aF3.0
aF2.0
aF2.0
aF88.38
asVCN(C=Nc1ccc(C)cc1C)C=Nc2ccc(C)cc2C
p763
(lp764
F1.0
aF293.414
aF0.0
aF2.0
aF4.0
aF27.96
asVCOc1nc(NC(C)C)nc(NC(C)C)n1
p765
(lp766
F1.0
aF225.296
aF2.0
aF1.0
aF5.0
aF71.96
asVCCCCCCC=C
p767
(lp768
F1.0
aF112.216
aF0.0
aF0.0
aF5.0
aF0.0
asVCc1ccc(N)cc1
p769
(lp770
F1.0
aF107.156
aF1.0
aF1.0
aF0.0
aF26.02
asVNc1nccs1
p771
(lp772
F1.0
aF100.146
aF1.0
aF1.0
aF0.0
aF38.91
asVc1ccccc1(OC(=O)NC)
p773
(lp774
F1.0
aF151.165
aF1.0
aF1.0
aF1.0
aF38.33
asVCCCC(O)CC
p775
(lp776
F1.0
aF102.177
aF1.0
aF0.0
aF3.0
aF20.23
asVc3ccc2c(O)c1ccccc1cc2c3
p777
(lp778
F1.0
aF194.233
aF1.0
aF3.0
aF0.0
aF20.23
asVCc1ccc2cc3ccccc3cc2c1
p779
(lp780
F1.0
aF192.261
aF0.0
aF3.0
aF0.0
aF0.0
asVCc1cccc(C)c1C
p781
(lp782
F1.0
aF120.195
aF0.0
aF1.0
aF0.0
aF0.0
asVCNC(=O)Oc1ccc(N(C)C)c(C)c1
p783
(lp784
F1.0
aF208.261
aF1.0
aF1.0
aF2.0
aF41.57
asVCCCCCCCC(C)O
p785
(lp786
F1.0
aF144.258
aF1.0
aF0.0
aF6.0
aF20.23
asVCN(C(=O)NC(C)(C)c1ccccc1)c2ccccc2
p787
(lp788
F1.0
aF268.36
aF1.0
aF2.0
aF3.0
aF32.34
asVCCCC(=O)CC
p789
(lp790
F1.0
aF100.161
aF0.0
aF0.0
aF3.0
aF17.07
asVOc1c(Br)cc(C#N)cc1Br
p791
(lp792
F1.0
aF276.915
aF1.0
aF1.0
aF0.0
aF44.02
asVClc1ccc(cc1Cl)c2ccccc2
p793
(lp794
F1.0
aF223.102
aF0.0
aF2.0
aF1.0
aF0.0
asVCN(C(=O)COc1nc2ccccc2s1)c3ccccc3
p795
(lp796
F1.0
aF298.367
aF0.0
aF3.0
aF4.0
aF42.43
asVOc1cccc2ncccc12
p797
(lp798
F1.0
aF145.161
aF1.0
aF2.0
aF0.0
aF33.12
asVCC1=C(SCCO1)C(=O)Nc2ccccc2
p799
(lp800
F1.0
aF235.308
aF1.0
aF2.0
aF2.0
aF38.33
asVCCOc2ccc1nc(sc1c2)S(N)(=O)=O
p801
(lp802
F1.0
aF258.324
aF1.0
aF2.0
aF3.0
aF82.28
asVOc1c(Cl)c(Cl)c(Cl)c(Cl)c1Cl
p803
(lp804
F1.0
aF266.338
aF1.0
aF1.0
aF0.0
aF20.23
asVClCBr
p805
(lp806
F1.0
aF129.384
aF0.0
aF0.0
aF0.0
aF0.0
asVCCC1(CC)C(=O)NC(=O)N(C)C1=O
p807
(lp808
F1.0
aF198.222
aF1.0
aF1.0
aF2.0
aF66.48
asVCC(=O)OCC(=O)C3CCC4C2CCC1=CC(=O)CCC1(C)C2CCC34C
p809
(lp810
F1.0
aF372.505
aF0.0
aF4.0
aF3.0
aF60.44
asVNC(=O)NCc1ccccc1
p811
(lp812
F1.0
aF150.181
aF2.0
aF1.0
aF2.0
aF55.12
asVCN(C)C(=O)Nc1ccc(C)c(Cl)c1
p813
(lp814
F1.0
aF212.68
aF1.0
aF1.0
aF1.0
aF32.34
asVCON(C)C(=O)Nc1ccc(Cl)c(Cl)c1
p815
(lp816
F1.0
aF249.097
aF1.0
aF1.0
aF2.0
aF41.57
asVOC1CCCCCC1
p817
(lp818
F1.0
aF114.188
aF1.0
aF1.0
aF0.0
aF20.23
asVCS(=O)(=O)c1ccc(cc1)C(O)C(CO)NC(=O)C(Cl)Cl
p819
(lp820
F1.0
aF356.227
aF3.0
aF1.0
aF6.0
aF103.7
asVCCCC(C)C1(CC)C(=O)NC(=S)NC1=O
p821
(lp822
F1.0
aF242.344
aF2.0
aF1.0
aF4.0
aF58.2
asVCC(=O)Nc1nnc(s1)S(N)(=O)=O
p823
(lp824
F1.0
aF222.251
aF2.0
aF1.0
aF2.0
aF115.04
asVOc1ccc(cc1)N(=O)=O
p825
(lp826
F1.0
aF139.11
aF1.0
aF1.0
aF1.0
aF63.37
asVClC1=C(Cl)C2(Cl)C3C4CC(C=C4)C3C1(Cl)C2(Cl)Cl
p827
(lp828
F1.0
aF364.914
aF0.0
aF4.0
aF0.0
aF0.0
asVC1CCOC1
p829
(lp830
F2.0
aF72.107
aF0.0
aF1.0
aF0.0
aF9.23
asVNc1ccccc1N(=O)=O
p831
(lp832
F1.0
aF138.126
aF1.0
aF1.0
aF1.0
aF69.16
asVClc1cccc(c1Cl)c2cccc(Cl)c2Cl
p833
(lp834
F1.0
aF291.992
aF0.0
aF2.0
aF1.0
aF0.0
asVCCCCC1C(=O)N(N(C1=O)c2ccccc2)c3ccccc3
p835
(lp836
F1.0
aF308.381
aF0.0
aF3.0
aF5.0
aF40.62
asVCc1c(cccc1N(=O)=O)N(=O)=O
p837
(lp838
F1.0
aF182.135
aF0.0
aF1.0
aF2.0
aF86.28
asVCC(=O)C1CCC2C3CCC4=CC(=O)CCC4(C)C3CCC12C
p839
(lp840
F1.0
aF314.469
aF0.0
aF4.0
aF1.0
aF34.14
asVCCN(CC)c1nc(Cl)nc(n1)N(CC)CC
p841
(lp842
F1.0
aF257.769
aF0.0
aF1.0
aF6.0
aF45.15
asVClC(Cl)C(Cl)(Cl)SN2C(=O)C1CC=CCC1C2=O
p843
(lp844
F1.0
aF349.066
aF0.0
aF2.0
aF3.0
aF37.38
asVc1(Br)c(Br)cc(Br)cc1
p845
(lp846
F1.0
aF314.802
aF0.0
aF1.0
aF0.0
aF0.0
asVOC3N=C(c1ccccc1)c2cc(Cl)ccc2NC3=O
p847
(lp848
F1.0
aF286.718
aF2.0
aF3.0
aF1.0
aF61.69
asVO=C1NC(=O)NC(=O)C1(C(C)CCC)CC=C
p849
(lp850
F1.0
aF238.287
aF2.0
aF1.0
aF5.0
aF75.27
asVc1(O)c(C)ccc(C(C)C)c1
p851
(lp852
F1.0
aF150.221
aF1.0
aF1.0
aF1.0
aF20.23
asVC1SC(=S)NC1(=O)
p853
(lp854
F1.0
aF133.197
aF1.0
aF1.0
aF0.0
aF29.1
asVOc1ccc(c(O)c1)c3oc2cc(O)cc(O)c2c(=O)c3O
p855
(lp856
F1.0
aF302.238
aF5.0
aF3.0
aF1.0
aF131.36
asVClC1(C(=O)C2(Cl)C3(Cl)C14Cl)C5(Cl)C2(Cl)C3(Cl)C(Cl)(Cl)C45Cl
p857
(lp858
F1.0
aF490.639
aF0.0
aF6.0
aF0.0
aF17.07
asVCCN(CC)C(=S)SSC(=S)N(CC)CC
p859
(lp860
F1.0
aF296.552
aF0.0
aF0.0
aF4.0
aF6.48
asVC1CCCCC1
p861
(lp862
F2.0
aF84.162
aF0.0
aF1.0
aF0.0
aF0.0
asVClC1=C(Cl)C(Cl)(C(=C1Cl)Cl)C2(Cl)C(=C(Cl)C(=C2Cl)Cl)Cl
p863
(lp864
F1.0
aF474.64
aF0.0
aF2.0
aF1.0
aF0.0
asVCN(C)C=Nc1ccc(Cl)cc1C
p865
(lp866
F1.0
aF196.681
aF0.0
aF1.0
aF2.0
aF15.6
asVCC34CCc1c(ccc2cc(O)ccc12)C3CCC4=O
p867
(lp868
F1.0
aF266.34
aF1.0
aF4.0
aF0.0
aF37.3
asVCCCCCCCCO
p869
(lp870
F1.0
aF130.231
aF1.0
aF0.0
aF6.0
aF20.23
asVCCSCC
p871
(lp872
F1.0
aF90.191
aF0.0
aF0.0
aF2.0
aF0.0
asVClCCCl
p873
(lp874
F1.0
aF98.96
aF0.0
aF0.0
aF1.0
aF0.0
asVCCC(C)(C)Cl
p875
(lp876
F1.0
aF106.596
aF0.0
aF0.0
aF1.0
aF0.0
asVClCCBr
p877
(lp878
F1.0
aF143.411
aF0.0
aF0.0
aF1.0
aF0.0
asVNc1ccc(cc1)N(=O)=O
p879
(lp880
F1.0
aF138.126
aF1.0
aF1.0
aF1.0
aF69.16
asVOCC1OC(OC2C(O)C(O)C(O)OC2CO)C(O)C(O)C1O
p881
(lp882
F1.0
aF342.297
aF8.0
aF2.0
aF4.0
aF189.53
asVCCN2c1ncccc1N(CC)C(=O)c3cccnc23
p883
(lp884
F1.0
aF268.32
aF0.0
aF3.0
aF2.0
aF49.33
asVClc1ccccc1
p885
(lp886
F1.0
aF112.559
aF0.0
aF1.0
aF0.0
aF0.0
asVCCCCCCCC=C
p887
(lp888
F1.0
aF126.243
aF0.0
aF0.0
aF6.0
aF0.0
asVBrc1ccc(I)cc1
p889
(lp890
F1.0
aF282.906
aF0.0
aF1.0
aF0.0
aF0.0
asVCCC(C)(O)CC
p891
(lp892
F1.0
aF102.177
aF1.0
aF0.0
aF2.0
aF20.23
asVCCCCCc1ccccc1
p893
(lp894
F1.0
aF148.249
aF0.0
aF1.0
aF4.0
aF0.0
asVNC(=O)NC1NC(=O)NC1=O
p895
(lp896
F1.0
aF158.117
aF4.0
aF1.0
aF1.0
aF113.32
asVOCC(O)COC(=O)c1ccccc1Nc2ccnc3cc(Cl)ccc23
p897
(lp898
F1.0
aF372.808
aF3.0
aF3.0
aF6.0
aF91.68
asVClC(Cl)C(c1ccc(Cl)cc1)c2ccc(Cl)cc2
p899
(lp900
F1.0
aF320.046
aF0.0
aF2.0
aF3.0
aF0.0
asVCC(=O)OC3CCC4C2CCC1=CC(=O)CCC1(C)C2CCC34C
p901
(lp902
F1.0
aF330.468
aF0.0
aF4.0
aF1.0
aF43.37
asVClc1cccc2ccccc12
p903
(lp904
F1.0
aF162.619
aF0.0
aF2.0
aF0.0
aF0.0
asVCCN2c1ccccc1N(C)C(=O)c3ccccc23
p905
(lp906
F1.0
aF252.317
aF0.0
aF3.0
aF1.0
aF23.55
asVCCCCC(C)O
p907
(lp908
F1.0
aF102.177
aF1.0
aF0.0
aF3.0
aF20.23
asVCCCC1CCCC1
p909
(lp910
F1.0
aF112.216
aF0.0
aF1.0
aF2.0
aF0.0
asVCCOC(=O)c1cncn1C(C)c2ccccc2
p911
(lp912
F1.0
aF244.294
aF0.0
aF2.0
aF4.0
aF44.12
asVOc1ccc(Cl)c(Cl)c1
p913
(lp914
F1.0
aF163.003
aF1.0
aF1.0
aF0.0
aF20.23
asVCC1(C)C(C=C(Cl)Cl)C1C(=O)OC(C#N)c2cccc(Oc3ccccc3)c2
p915
(lp916
F1.0
aF416.304
aF0.0
aF3.0
aF6.0
aF59.32
asVc2ccc1ocnc1c2
p917
(lp918
F2.0
aF119.123
aF0.0
aF2.0
aF0.0
aF26.03
asVCCCCCO
p919
(lp920
F1.0
aF88.15
aF1.0
aF0.0
aF3.0
aF20.23
asVCCN(CC)c1ccccc1
p921
(lp922
F1.0
aF149.237
aF0.0
aF1.0
aF3.0
aF3.24
asVFc1cccc(F)c1
p923
(lp924
F1.0
aF114.094
aF0.0
aF1.0
aF0.0
aF0.0
asVClCCC#N
p925
(lp926
F1.0
aF89.525
aF0.0
aF0.0
aF1.0
aF23.79
asVCC(C)(C)Cc1ccccc1
p927
(lp928
F1.0
aF148.249
aF0.0
aF1.0
aF1.0
aF0.0
asVO=C1NC(=O)NC(=O)C1(CC)c1ccccc1
p929
(lp930
F1.0
aF232.239
aF2.0
aF2.0
aF2.0
aF75.27
asVClc1ccccc1I
p931
(lp932
F1.0
aF238.455
aF0.0
aF1.0
aF0.0
aF0.0
asVc2ccc1[nH]nnc1c2
p933
(lp934
F2.0
aF119.127
aF1.0
aF2.0
aF0.0
aF41.57
asVCNC(=O)Oc1cccc2CC(C)(C)Oc12
p935
(lp936
F1.0
aF221.256
aF1.0
aF2.0
aF1.0
aF47.56
asVCc1cccc(C)c1O
p937
(lp938
F1.0
aF122.167
aF1.0
aF1.0
aF0.0
aF20.23
asVCC(C)C(C)O
p939
(lp940
F1.0
aF88.15
aF1.0
aF0.0
aF1.0
aF20.23
asVc1ccccc1C(O)c2ccccc2
p941
(lp942
F1.0
aF184.238
aF1.0
aF2.0
aF2.0
aF20.23
asVCCCCCCCCCC(=O)OC
p943
(lp944
F1.0
aF186.295
aF0.0
aF0.0
aF8.0
aF26.3
asVCOP(=S)(OC)Oc1ccc(cc1Cl)N(=O)=O
p945
(lp946
F1.0
aF297.656
aF0.0
aF1.0
aF5.0
aF70.83
asVCC(C)CBr
p947
(lp948
F1.0
aF137.02
aF0.0
aF0.0
aF1.0
aF0.0
asVCCI
p949
(lp950
F1.0
aF155.966
aF0.0
aF0.0
aF0.0
aF0.0
asVCN(C)C(=O)Oc1nc(nc(C)c1C)N(C)C
p951
(lp952
F1.0
aF238.291
aF0.0
aF1.0
aF2.0
aF58.56
asVCCCCCCBr
p953
(lp954
F1.0
aF165.074
aF0.0
aF0.0
aF4.0
aF0.0
asVCCCC(C)C
p955
(lp956
F1.0
aF86.178
aF0.0
aF0.0
aF2.0
aF0.0
asVCc1c(F)c(F)c(COC(=O)C2C(C=C(Cl)C(F)(F)F)C2(C)C)c(F)c1F
p957
(lp958
F1.0
aF418.736
aF0.0
aF2.0
aF4.0
aF26.3
asVCCc1cccc(C)c1N(C(C)COC)C(=O)CCl
p959
(lp960
F1.0
aF283.799
aF0.0
aF1.0
aF6.0
aF29.54
asVON=Cc1ccc(o1)N(=O)=O
p961
(lp962
F1.0
aF156.097
aF1.0
aF1.0
aF2.0
aF88.87
asVCC(C)C(Nc1ccc(cc1Cl)C(F)(F)F)C(=O)OC(C#N)c2cccc(Oc3ccccc3)c2
p963
(lp964
F1.0
aF502.92
aF1.0
aF3.0
aF8.0
aF71.35
asVNc1nc[nH]n1
p965
(lp966
F1.0
aF84.082
aF2.0
aF1.0
aF0.0
aF67.59
asVBrC(Br)Br
p967
(lp968
F1.0
aF252.731
aF0.0
aF0.0
aF0.0
aF0.0
asVCOP(=O)(OC)C(O)C(Cl)(Cl)Cl
p969
(lp970
F1.0
aF257.437
aF1.0
aF0.0
aF3.0
aF55.76
asVCCOP(=S)(OCC)SCn1c(=O)oc2cc(Cl)ccc12
p971
(lp972
F1.0
aF367.816
aF0.0
aF2.0
aF7.0
aF53.6
asVOCc1ccccc1
p973
(lp974
F1.0
aF108.14
aF1.0
aF1.0
aF1.0
aF20.23
asVO=c2c(C3CCCc4ccccc43)c(O)c1ccccc1o2
p975
(lp976
F1.0
aF292.334
aF1.0
aF4.0
aF1.0
aF50.44
asVOc1ccc(Br)cc1
p977
(lp978
F1.0
aF173.009
aF1.0
aF1.0
aF0.0
aF20.23
asVCC(C)Br
p979
(lp980
F1.0
aF122.993
aF0.0
aF0.0
aF0.0
aF0.0
asVCC(C)CC(C)(C)C
p981
(lp982
F1.0
aF114.232
aF0.0
aF0.0
aF1.0
aF0.0
asVO=N(=O)c1cc(cc(c1)N(=O)=O)N(=O)=O
p983
(lp984
F1.0
aF213.105
aF0.0
aF1.0
aF3.0
aF129.42
asVCN2C(=O)CN=C(c1ccccc1)c3cc(ccc23)N(=O)=O
p985
(lp986
F1.0
aF295.298
aF0.0
aF3.0
aF2.0
aF75.81
asVCCC
p987
(lp988
F1.0
aF44.097
aF0.0
aF0.0
aF0.0
aF0.0
asVNc1cc(nc(N)n1=O)N2CCCCC2
p989
(lp990
F1.0
aF209.253
aF2.0
aF2.0
aF1.0
aF95.11
asVNc2cccc3nc1ccccc1cc23
p991
(lp992
F1.0
aF194.237
aF1.0
aF3.0
aF0.0
aF38.91
asVc1ccc2cc3c4cccc5cccc(c3cc2c1)c45
p993
(lp994
F2.0
aF252.316
aF0.0
aF5.0
aF0.0
aF0.0
asVOC(c1ccc(Cl)cc1)(c2ccc(Cl)cc2)C(Cl)(Cl)Cl
p995
(lp996
F1.0
aF370.49
aF1.0
aF2.0
aF2.0
aF20.23
asVC1Cc2cccc3cccc1c23
p997
(lp998
F2.0
aF154.212
aF0.0
aF3.0
aF0.0
aF0.0
asVCCOP(=S)(OCC)SC(CCl)N2C(=O)c1ccccc1C2=O
p999
(lp1000
F1.0
aF393.854
aF0.0
aF2.0
aF8.0
aF55.84
asVBrc1ccc(Br)cc1
p1001
(lp1002
F1.0
aF235.906
aF0.0
aF1.0
aF0.0
aF0.0
asVCn2c(=O)on(c1ccc(Cl)c(Cl)c1)c2=O
p1003
(lp1004
F1.0
aF261.064
aF0.0
aF2.0
aF1.0
aF57.14
asVOc1ccc(cc1)c2ccccc2
p1005
(lp1006
F1.0
aF170.211
aF1.0
aF2.0
aF1.0
aF20.23
asVCC1=C(CCCO1)C(=O)Nc2ccccc2
p1007
(lp1008
F1.0
aF217.268
aF1.0
aF2.0
aF2.0
aF38.33
asVCCOC=C
p1009
(lp1010
F1.0
aF72.107
aF0.0
aF0.0
aF2.0
aF9.23
asVCCC#C
p1011
(lp1012
F1.0
aF54.092
aF0.0
aF0.0
aF0.0
aF0.0
asVCOc1ncnc2nccnc12
p1013
(lp1014
F1.0
aF162.152
aF0.0
aF2.0
aF1.0
aF60.79
asVCCCCC(C)(O)CC
p1015
(lp1016
F1.0
aF130.231
aF1.0
aF0.0
aF4.0
aF20.23
asVClc1ccc(Cl)cc1
p1017
(lp1018
F1.0
aF147.004
aF0.0
aF1.0
aF0.0
aF0.0
asVO=C1N(COC(=O)C)C(=O)C(N1)(c2ccccc2)c3ccccc3
p1019
(lp1020
F1.0
aF324.336
aF1.0
aF3.0
aF4.0
aF75.71
asVCSCS(=O)CC(CO)NC(=O)C=Cc1c(C)[nH]c(=O)[nH]c1=O
p1021
(lp1022
F1.0
aF361.445
aF4.0
aF1.0
aF8.0
aF132.12
asVCc1c[nH]c2ccccc12
p1023
(lp1024
F1.0
aF131.178
aF1.0
aF2.0
aF0.0
aF15.79
asVCOc2ncc1nccnc1n2
p1025
(lp1026
F1.0
aF162.152
aF0.0
aF2.0
aF1.0
aF60.79
asVCNC(=O)Oc1ccccc1C2OCCO2
p1027
(lp1028
F1.0
aF223.228
aF1.0
aF2.0
aF2.0
aF56.79
asVC1N(C(=O)NCC(C)C)C(=O)NC1
p1029
(lp1030
F1.0
aF185.227
aF2.0
aF1.0
aF2.0
aF61.44
asVCC#N
p1031
(lp1032
F1.0
aF41.053
aF0.0
aF0.0
aF0.0
aF23.79
asVCCOC(=O)NCCOc2ccc(Oc1ccccc1)cc2
p1033
(lp1034
F1.0
aF301.342
aF1.0
aF2.0
aF7.0
aF56.79
asVCC(=O)N(S(=O)c1ccc(N)cc1)c2onc(C)c2C
p1035
(lp1036
F1.0
aF293.348
aF1.0
aF2.0
aF3.0
aF89.43
asVClCC(Cl)(Cl)Cl
p1037
(lp1038
F1.0
aF167.85
aF0.0
aF0.0
aF0.0
aF0.0
asVCCCCO
p1039
(lp1040
F1.0
aF74.123
aF1.0
aF0.0
aF2.0
aF20.23
asVCC1CCCCC1NC(=O)Nc2ccccc2
p1041
(lp1042
F1.0
aF232.327
aF2.0
aF2.0
aF2.0
aF41.13
asVClc1cc(Cl)cc(Cl)c1
p1043
(lp1044
F1.0
aF181.449
aF0.0
aF1.0
aF0.0
aF0.0
asVO=Cc1ccco1
p1045
(lp1046
F1.0
aF96.085
aF0.0
aF1.0
aF1.0
aF30.21
asVCC(C)CCO
p1047
(lp1048
F1.0
aF88.15
aF1.0
aF0.0
aF2.0
aF20.23
asVO=Cc2ccc1OCOc1c2
p1049
(lp1050
F1.0
aF150.133
aF0.0
aF2.0
aF1.0
aF35.53
asVCC(=C)C
p1051
(lp1052
F1.0
aF56.108
aF0.0
aF0.0
aF0.0
aF0.0
asVO=Cc1ccccc1
p1053
(lp1054
F1.0
aF106.124
aF0.0
aF1.0
aF1.0
aF17.07
asVCC(=C)C(=C)C
p1055
(lp1056
F1.0
aF82.146
aF0.0
aF0.0
aF1.0
aF0.0
asVCCOC(=O)CCN(SN(C)C(=O)Oc1cccc2CC(C)(C)Oc21)C(C)C
p1057
(lp1058
F1.0
aF410.536
aF0.0
aF2.0
aF8.0
aF68.31
asVO2c1ccccc1N(C)C(=O)c3cccnc23
p1059
(lp1060
F1.0
aF226.235
aF0.0
aF3.0
aF0.0
aF42.43
asVC1c2ccccc2c3ccccc13
p1061
(lp1062
F2.0
aF166.223
aF0.0
aF3.0
aF0.0
aF0.0
asVCC1CCCCC1
p1063
(lp1064
F1.0
aF98.189
aF0.0
aF1.0
aF0.0
aF0.0
asVNC(=N)NS(=O)(=O)c1ccc(N)cc1
p1065
(lp1066
F1.0
aF214.25
aF4.0
aF1.0
aF2.0
aF122.06
asVCOC(=O)c1ccc(O)cc1
p1067
(lp1068
F1.0
aF152.149
aF1.0
aF1.0
aF1.0
aF46.53
asVCC1CCCO1
p1069
(lp1070
F1.0
aF86.134
aF0.0
aF1.0
aF0.0
aF9.23
asVCC3C2CCC1(C)C=CC(=O)C(=C1C2OC3=O)C
p1071
(lp1072
F1.0
aF246.306
aF0.0
aF3.0
aF0.0
aF43.37
asVOCC2OC(Oc1ccccc1CO)C(O)C(O)C2O
p1073
(lp1074
F1.0
aF286.28
aF5.0
aF2.0
aF4.0
aF119.61
asVCCCI
p1075
(lp1076
F1.0
aF169.993
aF0.0
aF0.0
aF1.0
aF0.0
asVCCNc1nc(NC(C)C)nc(SC)n1
p1077
(lp1078
F1.0
aF227.337
aF2.0
aF1.0
aF5.0
aF62.73
asVCCCO
p1079
(lp1080
F1.0
aF60.096
aF1.0
aF0.0
aF1.0
aF20.23
asVCC(=O)C1(O)CCC2C3CCC4=CC(=O)CCC4(C)C3CCC21C
p1081
(lp1082
F1.0
aF330.468
aF1.0
aF4.0
aF1.0
aF54.37
asVCCCC(C)O
p1083
(lp1084
F1.0
aF88.15
aF1.0
aF0.0
aF2.0
aF20.23
asVOC(C(=O)c1ccccc1)c2ccccc2
p1085
(lp1086
F1.0
aF212.248
aF1.0
aF2.0
aF3.0
aF37.3
asVCc1ccc(O)c(C)c1
p1087
(lp1088
F1.0
aF122.167
aF1.0
aF1.0
aF0.0
aF20.23
asVClc1cccc(c1)N(=O)=O
p1089
(lp1090
F1.0
aF157.556
aF0.0
aF1.0
aF1.0
aF43.14
asVCc2c(N)c(=O)n(c1ccccc1)n2C
p1091
(lp1092
F1.0
aF203.245
aF1.0
aF2.0
aF1.0
aF52.95
asVClc1ccc(c(Cl)c1)c2cc(Cl)ccc2Cl
p1093
(lp1094
F1.0
aF291.992
aF0.0
aF2.0
aF1.0
aF0.0
asVClC(=C(Cl)C(=C(Cl)Cl)Cl)Cl
p1095
(lp1096
F1.0
aF260.762
aF0.0
aF0.0
aF1.0
aF0.0
asVCCNc1nc(NC(C)(C)C)nc(SC)n1
p1097
(lp1098
F1.0
aF241.364
aF2.0
aF1.0
aF4.0
aF62.73
asVCCC(C)CCO
p1099
(lp1100
F1.0
aF102.177
aF1.0
aF0.0
aF3.0
aF20.23
asVCc2ncc1nccnc1n2
p1101
(lp1102
F1.0
aF146.153
aF0.0
aF2.0
aF0.0
aF51.56
asVCC23Cc1cnoc1C=C2CCC4C3CCC5(C)C4CCC5(O)C#C
p1103
(lp1104
F1.0
aF337.463
aF1.0
aF5.0
aF0.0
aF46.26
asVCCCCI
p1105
(lp1106
F1.0
aF184.02
aF0.0
aF0.0
aF2.0
aF0.0
asVBrc1ccc2ccccc2c1
p1107
(lp1108
F1.0
aF207.07
aF0.0
aF2.0
aF0.0
aF0.0
asVCC1OC(CC(O)C1O)OC2C(O)CC(OC2C)OC8C(O)CC(OC7CCC3(C)C(CCC4C3CC(O)C5(C)C(CCC45O)C6=CC(=O)OC6)C7)OC8C
p1109
(lp1110
F1.0
aF780.949
aF6.0
aF8.0
aF7.0
aF203.06
asVFC(F)(F)c1ccccc1
p1111
(lp1112
F1.0
aF146.111
aF0.0
aF1.0
aF0.0
aF0.0
asVCCCCCCOC(=O)c1ccccc1C(=O)OCCCCCC
p1113
(lp1114
F1.0
aF334.456
aF0.0
aF1.0
aF12.0
aF52.6
asVc1ccc2c(c1)sc3ccccc23
p1115
(lp1116
F2.0
aF184.263
aF0.0
aF3.0
aF0.0
aF0.0
asVClc1ccc(c(Cl)c1)c2ccc(Cl)c(Cl)c2Cl
p1117
(lp1118
F1.0
aF326.437
aF0.0
aF2.0
aF1.0
aF0.0
asVClc1ccc(c(Cl)c1Cl)c2ccc(Cl)c(Cl)c2Cl
p1119
(lp1120
F1.0
aF360.882
aF0.0
aF2.0
aF1.0
aF0.0
asVCC(=O)CC(c1ccccc1)c3c(O)c2ccccc2oc3=O
p1121
(lp1122
F1.0
aF308.333
aF1.0
aF3.0
aF4.0
aF67.51
asVc1ccccc1C(O)C(O)c2ccccc2
p1123
(lp1124
F1.0
aF214.264
aF2.0
aF2.0
aF3.0
aF40.46
asVCOC(=O)c1ccccc1C(=O)OC
p1125
(lp1126
F1.0
aF194.186
aF0.0
aF1.0
aF2.0
aF52.6
asVCCCCCCCC(=O)OCC
p1127
(lp1128
F1.0
aF172.268
aF0.0
aF0.0
aF7.0
aF26.3
asVCCSSCC
p1129
(lp1130
F1.0
aF122.258
aF0.0
aF0.0
aF3.0
aF0.0
asVCCOCCOCC
p1131
(lp1132
F1.0
aF118.176
aF0.0
aF0.0
aF5.0
aF18.46
asVClc1cc(Cl)c(Cl)cc1Cl
p1133
(lp1134
F1.0
aF215.894
aF0.0
aF1.0
aF0.0
aF0.0
asVNc1ccc(cc1)c2ccc(N)cc2
p1135
(lp1136
F1.0
aF184.242
aF2.0
aF2.0
aF1.0
aF52.04
asVCCCCCC=C
p1137
(lp1138
F1.0
aF98.189
aF0.0
aF0.0
aF4.0
aF0.0
asVCCCCc1c(C)nc(NCC)[nH]c1=O
p1139
(lp1140
F1.0
aF209.293
aF2.0
aF1.0
aF5.0
aF57.78
asVO=C1NC(=O)NC(=O)C1(CC)C(C)CCC
p1141
(lp1142
F1.0
aF226.276
aF2.0
aF1.0
aF4.0
aF75.27
asVNc1ccccc1Cl
p1143
(lp1144
F1.0
aF127.574
aF1.0
aF1.0
aF0.0
aF26.02
asVCOc1cccc(Cl)c1
p1145
(lp1146
F1.0
aF142.585
aF0.0
aF1.0
aF1.0
aF9.23
asVCCCCN(CC)C(=O)SCCC
p1147
(lp1148
F1.0
aF203.351
aF0.0
aF0.0
aF6.0
aF20.31
asVCCCCOC=O
p1149
(lp1150
F1.0
aF102.133
aF0.0
aF0.0
aF4.0
aF26.3
asVCC12CC(O)C3C(CCC4=CC(=O)C=CC34C)C2CCC1(O)C(=O)CO
p1151
(lp1152
F1.0
aF360.45
aF3.0
aF4.0
aF2.0
aF94.83
asVBrC(Cl)Cl
p1153
(lp1154
F1.0
aF163.829
aF0.0
aF0.0
aF0.0
aF0.0
asVCC34CC(=O)C1C(CCC2=CC(=O)CCC12C)C3CCC4(=O)
p1155
(lp1156
F1.0
aF300.398
aF0.0
aF4.0
aF0.0
aF51.21
asVc1ccc(cc1)c2ccc(cc2)c3ccccc3
p1157
(lp1158
F2.0
aF230.31
aF0.0
aF3.0
aF2.0
aF0.0
asVOc1ccc(C=O)cc1
p1159
(lp1160
F1.0
aF122.123
aF1.0
aF1.0
aF1.0
aF37.3
asVCBr
p1161
(lp1162
F1.0
aF94.939
aF0.0
aF0.0
aF0.0
aF0.0
asVCc1cc(ccc1NS(=O)(=O)C(F)(F)F)S(=O)(=O)c2ccccc2
p1163
(lp1164
F1.0
aF379.381
aF1.0
aF2.0
aF4.0
aF80.31
asVCC(=O)CC(c1ccc(Cl)cc1)c2c(O)c3ccccc3oc2=O
p1165
(lp1166
F1.0
aF342.778
aF1.0
aF3.0
aF4.0
aF67.51
asVCCc1ccc2ccccc2c1
p1167
(lp1168
F1.0
aF156.228
aF0.0
aF2.0
aF1.0
aF0.0
asVNc1c(C)c[nH]c(=O)n1
p1169
(lp1170
F1.0
aF125.131
aF2.0
aF1.0
aF0.0
aF71.77
asVClc2c(Cl)c(Cl)c(c1ccccc1)c(Cl)c2Cl
p1171
(lp1172
F1.0
aF326.437
aF0.0
aF2.0
aF1.0
aF0.0
asVc1c(NC(=O)c2ccccc2(I))cccc1
p1173
(lp1174
F1.0
aF323.133
aF1.0
aF2.0
aF2.0
aF29.1
asVCc3cc2nc1c(=O)[nH]c(=O)nc1n(CC(O)C(O)C(O)CO)c2cc3C
p1175
(lp1176
F1.0
aF376.369
aF5.0
aF3.0
aF5.0
aF161.56
asVFc1ccccc1Br
p1177
(lp1178
F1.0
aF175.0
aF0.0
aF1.0
aF0.0
aF0.0
asVOc1ccc(Cl)cc1Cl
p1179
(lp1180
F1.0
aF163.003
aF1.0
aF1.0
aF0.0
aF20.23
asVCC1(C)C(C=C(Cl)Cl)C1C(=O)OCc2cccc(Oc3ccccc3)c2
p1181
(lp1182
F1.0
aF391.294
aF0.0
aF3.0
aF6.0
aF35.53
asVCN2C(=C(O)c1ccccc1S2(=O)=O)C(=O)Nc3ccccn3
p1183
(lp1184
F1.0
aF331.353
aF2.0
aF3.0
aF2.0
aF99.6
asVO=C1N(COC(=O)CC)C(=O)C(N1)(c2ccccc2)c3ccccc3
p1185
(lp1186
F1.0
aF338.363
aF1.0
aF3.0
aF5.0
aF75.71
asVC1CCCC1
p1187
(lp1188
F2.0
aF70.135
aF0.0
aF1.0
aF0.0
aF0.0
asVCc1ccccc1N
p1189
(lp1190
F1.0
aF107.156
aF1.0
aF1.0
aF0.0
aF26.02
asVc1(OC)ccc(CC=C)cc1
p1191
(lp1192
F1.0
aF148.205
aF0.0
aF1.0
aF3.0
aF9.23
asVCN(C)C(=O)Nc1cccc(OC(=O)NC(C)(C)C)c1
p1193
(lp1194
F1.0
aF279.34
aF2.0
aF1.0
aF2.0
aF70.67
asVCC(C)C=C
p1195
(lp1196
F1.0
aF70.135
aF0.0
aF0.0
aF1.0
aF0.0
asVOc1ccccn1
p1197
(lp1198
F1.0
aF95.101
aF1.0
aF1.0
aF0.0
aF33.12
asVCC
p1199
(lp1200
F1.0
aF30.07
aF0.0
aF0.0
aF0.0
aF0.0
asVClc1ccccc1Cl
p1201
(lp1202
F1.0
aF147.004
aF0.0
aF1.0
aF0.0
aF0.0
asVSc2nc1ccccc1s2
p1203
(lp1204
F1.0
aF167.258
aF1.0
aF2.0
aF0.0
aF12.89
asVClc1c(Cl)c(Cl)c(c(Cl)c1Cl)c2c(Cl)c(Cl)c(Cl)c(Cl)c2Cl
p1205
(lp1206
F1.0
aF498.662
aF0.0
aF2.0
aF1.0
aF0.0
asVCOc2c1occc1cc3ccc(=O)oc23
p1207
(lp1208
F1.0
aF216.192
aF0.0
aF3.0
aF1.0
aF52.58
asVCC(=O)N
p1209
(lp1210
F1.0
aF59.068
aF1.0
aF0.0
aF0.0
aF43.09
asVCc1cccc2ccccc12
p1211
(lp1212
F1.0
aF142.201
aF0.0
aF2.0
aF0.0
aF0.0
asVCCN(CC)C(=O)C(C)Oc1cccc2ccccc12
p1213
(lp1214
F1.0
aF271.36
aF0.0
aF2.0
aF5.0
aF29.54
asVCC(O)C(C)(C)C
p1215
(lp1216
F1.0
aF102.177
aF1.0
aF0.0
aF0.0
aF20.23
asVCCCC(=O)OCC
p1217
(lp1218
F1.0
aF116.16
aF0.0
aF0.0
aF3.0
aF26.3
asVCC2=CC(=O)c1ccccc1C2=O
p1219
(lp1220
F1.0
aF172.183
aF0.0
aF2.0
aF0.0
aF34.14
asVc1ccc2c(c1)ccc3ccccc32
p1221
(lp1222
F2.0
aF178.234
aF0.0
aF3.0
aF0.0
aF0.0
asVCc1ccnc(C)c1
p1223
(lp1224
F1.0
aF107.156
aF0.0
aF1.0
aF0.0
aF12.89
asVCCCCCCCCCO
p1225
(lp1226
F1.0
aF144.258
aF1.0
aF0.0
aF7.0
aF20.23
asVBrCBr
p1227
(lp1228
F1.0
aF173.835
aF0.0
aF0.0
aF0.0
aF0.0
asVCC1CC2C3CCC4=CC(=O)C=CC4(C)C3(F)C(O)CC2(C)C1(O)C(=O)CO
p1229
(lp1230
F1.0
aF392.467
aF3.0
aF4.0
aF2.0
aF94.83
asVCc1ccc2cc(C)ccc2c1
p1231
(lp1232
F1.0
aF156.228
aF0.0
aF2.0
aF0.0
aF0.0
asVCCSC(=O)N(CC(C)C)CC(C)C
p1233
(lp1234
F1.0
aF217.378
aF0.0
aF0.0
aF5.0
aF20.31
asVO=N(=O)OCC(CON(=O)=O)ON(=O)=O
p1235
(lp1236
F1.0
aF227.085
aF0.0
aF0.0
aF8.0
aF157.11
asVNc1cccc(c1)N(=O)=O
p1237
(lp1238
F1.0
aF138.126
aF1.0
aF1.0
aF1.0
aF69.16
asVCCCCCl
p1239
(lp1240
F1.0
aF92.569
aF0.0
aF0.0
aF2.0
aF0.0
asVClC(Cl)(Cl)C(NC=O)N1C=CN(C=C1)C(NC=O)C(Cl)(Cl)Cl
p1241
(lp1242
F1.0
aF430.934
aF2.0
aF1.0
aF6.0
aF64.68
asVCn2cc(c1ccccc1)c(=O)c(c2)c3cccc(c3)C(F)(F)F
p1243
(lp1244
F1.0
aF329.321
aF0.0
aF3.0
aF2.0
aF22.0
asVNc3cc2c1ccccc1ccc2c4ccccc34
p1245
(lp1246
F1.0
aF243.309
aF1.0
aF4.0
aF0.0
aF26.02
asVCC12CCC3C(CCc4cc(O)ccc34)C2CCC1=O
p1247
(lp1248
F1.0
aF270.372
aF1.0
aF4.0
aF0.0
aF37.3
asVCCN2c1ccccc1N(C)C(=S)c3cccnc23
p1249
(lp1250
F1.0
aF269.373
aF0.0
aF3.0
aF1.0
aF19.37
asVCC1CO1
p1251
(lp1252
F1.0
aF58.08
aF0.0
aF1.0
aF0.0
aF12.53
asVO=C3CN=C(c1ccccc1)c2cc(ccc2N3)N(=O)=O
p1253
(lp1254
F1.0
aF281.271
aF1.0
aF3.0
aF2.0
aF84.6
asVCCNC(=S)NCC
p1255
(lp1256
F1.0
aF132.232
aF2.0
aF0.0
aF2.0
aF24.06
asVOc1cc(Cl)cc(Cl)c1Cl
p1257
(lp1258
F1.0
aF197.448
aF1.0
aF1.0
aF0.0
aF20.23
asVCCCCC(=O)OC
p1259
(lp1260
F1.0
aF116.16
aF0.0
aF0.0
aF3.0
aF26.3
asVNc1ccccc1
p1261
(lp1262
F1.0
aF93.129
aF1.0
aF1.0
aF0.0
aF26.02
asVCc1cccc2c(C)cccc12
p1263
(lp1264
F1.0
aF156.228
aF0.0
aF2.0
aF0.0
aF0.0
asVNS(=O)(=O)c2cc1c(NCNS1(=O)=O)cc2Cl
p1265
(lp1266
F1.0
aF297.745
aF3.0
aF2.0
aF1.0
aF118.36
asVC1=Cc2cccc3cccc1c23
p1267
(lp1268
F2.0
aF152.196
aF0.0
aF3.0
aF0.0
aF0.0
asVCCCCCOC(=O)CC
p1269
(lp1270
F1.0
aF144.214
aF0.0
aF0.0
aF5.0
aF26.3
asVCCNc1nc(NC(C)C)nc(OC)n1
p1271
(lp1272
F1.0
aF211.269
aF2.0
aF1.0
aF5.0
aF71.96
asVc1ccc2c(c1)cc3ccc4cccc5ccc2c3c45
p1273
(lp1274
F2.0
aF252.316
aF0.0
aF5.0
aF0.0
aF0.0
asVCCBr
p1275
(lp1276
F1.0
aF108.966
aF0.0
aF0.0
aF0.0
aF0.0
asVCCC#CCC
p1277
(lp1278
F1.0
aF82.146
aF0.0
aF0.0
aF0.0
aF0.0
asVCC1OC(CC(O)C1O)OC2C(O)CC(OC2C)OC8C(O)CC(OC7CCC3(C)C(CCC4C3CCC5(C)C(CCC45O)C6=CC(=O)OC6)C7)OC8C
p1279
(lp1280
F1.0
aF764.95
aF5.0
aF8.0
aF7.0
aF182.83
asVCCC(=C)C
p1281
(lp1282
F1.0
aF70.135
aF0.0
aF0.0
aF1.0
aF0.0
asVOc1cccc2cccnc12
p1283
(lp1284
F1.0
aF145.161
aF1.0
aF2.0
aF0.0
aF33.12
asVC1CCc2ccccc2C1
p1285
(lp1286
F2.0
aF132.206
aF0.0
aF2.0
aF0.0
aF0.0
asVOc1ccc(cc1)C2(OC(=O)c3ccccc23)c4ccc(O)cc4
p1287
(lp1288
F1.0
aF318.328
aF2.0
aF4.0
aF2.0
aF66.76
asVBrc1cc(Br)cc(Br)c1
p1289
(lp1290
F1.0
aF314.802
aF0.0
aF1.0
aF0.0
aF0.0
asVCOP(=S)(OC)Oc1cc(Cl)c(Cl)cc1Cl
p1291
(lp1292
F1.0
aF321.549
aF0.0
aF1.0
aF4.0
aF27.69
asVCc1cc(=O)[nH]c(=S)[nH]1
p1293
(lp1294
F1.0
aF142.183
aF2.0
aF1.0
aF0.0
aF48.65
asVCOc1cc(CC=C)ccc1O
p1295
(lp1296
F1.0
aF164.204
aF1.0
aF1.0
aF3.0
aF29.46
asVO=C1NC(=O)NC(=O)C1(C(C)C)CC=C
p1297
(lp1298
F1.0
aF210.233
aF2.0
aF1.0
aF3.0
aF75.27
asVc1cc2ccc3cccc4ccc(c1)c2c34
p1299
(lp1300
F2.0
aF202.256
aF0.0
aF4.0
aF0.0
aF0.0
asVCCOC(C)OCC
p1301
(lp1302
F1.0
aF118.176
aF0.0
aF0.0
aF4.0
aF18.46
asVCC1(C)CON(Cc2ccccc2Cl)C1=O
p1303
(lp1304
F1.0
aF239.702
aF0.0
aF2.0
aF2.0
aF29.54
asVCCCCOCCO
p1305
(lp1306
F1.0
aF118.176
aF1.0
aF0.0
aF5.0
aF29.46
asVClc1c(Cl)c(Cl)c(N(=O)=O)c(Cl)c1Cl
p1307
(lp1308
F1.0
aF295.336
aF0.0
aF1.0
aF1.0
aF43.14
asVCC12CCC(O)CC1CCC3C2CCC4(C)C3CCC4=O
p1309
(lp1310
F1.0
aF290.447
aF1.0
aF4.0
aF0.0
aF37.3
asVFC(F)(F)c1cccc(c1)N2CC(CCl)C(Cl)C2=O
p1311
(lp1312
F1.0
aF312.118
aF0.0
aF2.0
aF2.0
aF20.31
asVc1ccc2ncccc2c1
p1313
(lp1314
F2.0
aF129.162
aF0.0
aF2.0
aF0.0
aF12.89
asVCOC(=O)c1cc(O)c(O)c(O)c1
p1315
(lp1316
F1.0
aF184.147
aF3.0
aF1.0
aF1.0
aF86.99
asVOC(Cn1cncn1)(Cn2cncn2)c3ccc(F)cc3F
p1317
(lp1318
F1.0
aF306.276
aF1.0
aF3.0
aF5.0
aF81.65
asVClc2ccc1oc(=O)[nH]c1c2
p1319
(lp1320
F1.0
aF169.567
aF1.0
aF2.0
aF0.0
aF46.0
asVClc1ccc(c(Cl)c1)c2c(Cl)c(Cl)c(Cl)c(Cl)c2Cl
p1321
(lp1322
F1.0
aF395.327
aF0.0
aF2.0
aF1.0
aF0.0
asVO=C1NC(=O)C(=O)C(=O)N1
p1323
(lp1324
F1.0
aF142.07
aF2.0
aF1.0
aF0.0
aF92.34
asVClCCCCl
p1325
(lp1326
F1.0
aF112.987
aF0.0
aF0.0
aF2.0
aF0.0
asVFc1cccc(Br)c1
p1327
(lp1328
F1.0
aF175.0
aF0.0
aF1.0
aF0.0
aF0.0
asVClc1ccc(Br)cc1
p1329
(lp1330
F1.0
aF191.455
aF0.0
aF1.0
aF0.0
aF0.0
asVCC(C)C(C)C
p1331
(lp1332
F1.0
aF86.178
aF0.0
aF0.0
aF1.0
aF0.0
asVCCC=C
p1333
(lp1334
F1.0
aF56.108
aF0.0
aF0.0
aF1.0
aF0.0
asVClc1ccc(Cl)c(c1)c2cc(Cl)c(Cl)c(Cl)c2Cl
p1335
(lp1336
F1.0
aF360.882
aF0.0
aF2.0
aF1.0
aF0.0
asVNc1cc[nH]c(=O)n1
p1337
(lp1338
F1.0
aF111.104
aF2.0
aF1.0
aF0.0
aF71.77
asVFC(F)(Cl)C(F)(Cl)Cl
p1339
(lp1340
F1.0
aF187.375
aF0.0
aF0.0
aF1.0
aF0.0
asVCCC#N
p1341
(lp1342
F1.0
aF55.08
aF0.0
aF0.0
aF0.0
aF23.79
asVClC(Cl)C(c1ccc(Cl)cc1)c2ccccc2Cl
p1343
(lp1344
F1.0
aF320.046
aF0.0
aF2.0
aF3.0
aF0.0
asVCOc1ccccc1N(=O)=O
p1345
(lp1346
F1.0
aF153.137
aF0.0
aF1.0
aF2.0
aF52.37
asVCC34CCC1C(CC=C2CC(O)CCC12C)C3CCC4=O
p1347
(lp1348
F1.0
aF288.431
aF1.0
aF4.0
aF0.0
aF37.3
asVCC12CC2(C)C(=O)N(C1=O)c3cc(Cl)cc(Cl)c3
p1349
(lp1350
F1.0
aF284.142
aF0.0
aF3.0
aF1.0
aF37.38
asVc1cc2ccc3ccc4ccc5cccc6c(c1)c2c3c4c56
p1351
(lp1352
F2.0
aF276.338
aF0.0
aF6.0
aF0.0
aF0.0
asVCCC(C)c1cc(cc(N(=O)=O)c1O)N(=O)=O
p1353
(lp1354
F1.0
aF240.215
aF1.0
aF1.0
aF4.0
aF106.51
asVc1c(OC)c(OC)C2C(=O)OCC2c1
p1355
(lp1356
F1.0
aF196.202
aF0.0
aF2.0
aF2.0
aF44.76
asVOCC(O)CO
p1357
(lp1358
F1.0
aF92.094
aF3.0
aF0.0
aF2.0
aF60.69
asVCOc1ccccc1O
p1359
(lp1360
F1.0
aF124.139
aF1.0
aF1.0
aF1.0
aF29.46
asVCCOP(=S)(OCC)Oc1nc(Cl)c(Cl)cc1Cl
p1361
(lp1362
F1.0
aF350.591
aF0.0
aF1.0
aF6.0
aF40.58
asVCc1c2ccccc2cc3ccccc13
p1363
(lp1364
F1.0
aF192.261
aF0.0
aF3.0
aF0.0
aF0.0
asVCc1cc(=O)n(c2ccccc2)n1C
p1365
(lp1366
F1.0
aF188.23
aF0.0
aF2.0
aF1.0
aF26.93
asVCCCCOC
p1367
(lp1368
F1.0
aF88.15
aF0.0
aF0.0
aF3.0
aF9.23
asVCc2cnc1cncnc1n2
p1369
(lp1370
F1.0
aF146.153
aF0.0
aF2.0
aF0.0
aF51.56
asVCCNc1nc(Cl)nc(NCC)n1
p1371
(lp1372
F1.0
aF201.661
aF2.0
aF1.0
aF4.0
aF62.73
asVCN(C)C(=O)C
p1373
(lp1374
F1.0
aF87.122
aF0.0
aF0.0
aF0.0
aF20.31
asVCSc1nc(nc(n1)N(C)C)N(C)C
p1375
(lp1376
F1.0
aF213.31
aF0.0
aF1.0
aF3.0
aF45.15
asVC=C
p1377
(lp1378
F1.0
aF28.054
aF0.0
aF0.0
aF0.0
aF0.0
asVCC(C)(C)CCO
p1379
(lp1380
F1.0
aF102.177
aF1.0
aF0.0
aF1.0
aF20.23
asVO=C1NC(=O)NC(=O)C1(CC)CC=C
p1381
(lp1382
F1.0
aF196.206
aF2.0
aF1.0
aF3.0
aF75.27
asVOc1ccc(Cl)c(Cl)c1Cl
p1383
(lp1384
F1.0
aF197.448
aF1.0
aF1.0
aF0.0
aF20.23
asVCOc1ccccc1
p1385
(lp1386
F1.0
aF108.14
aF0.0
aF1.0
aF1.0
aF9.23
asVc1ccc(Cl)cc1C(c2ccc(Cl)cc2)(O)C(=O)OC(C)C
p1387
(lp1388
F1.0
aF339.218
aF1.0
aF2.0
aF4.0
aF46.53
asVCC13CCC(=O)C=C1CCC4C2CCC(C(=O)CO)C2(CC(O)C34)C=O
p1389
(lp1390
F1.0
aF360.45
aF2.0
aF4.0
aF3.0
aF91.67
asVCOc2ccc(Oc1ccc(NC(=O)N(C)C)cc1)cc2
p1391
(lp1392
F1.0
aF286.331
aF1.0
aF2.0
aF4.0
aF50.8
asVCCc1ccc(C)cc1
p1393
(lp1394
F1.0
aF120.195
aF0.0
aF1.0
aF1.0
aF0.0
asVCC(C)SC(C)C
p1395
(lp1396
F1.0
aF118.245
aF0.0
aF0.0
aF2.0
aF0.0
asVO=N(=O)c1cccc(c1)N(=O)=O
p1397
(lp1398
F1.0
aF168.108
aF0.0
aF1.0
aF2.0
aF86.28
asVCCOP(=S)(OCC)SCSP(=S)(OCC)OCC
p1399
(lp1400
F1.0
aF384.487
aF0.0
aF0.0
aF12.0
aF36.92
asVCCC1(C(C)C)C(=O)NC(=O)NC1=O
p1401
(lp1402
F1.0
aF198.222
aF2.0
aF1.0
aF2.0
aF75.27
asVCC(=O)OCC(=O)C3(O)CCC4C2CCC1=CC(=O)CCC1(C)C2C(=O)CC34C
p1403
(lp1404
F1.0
aF402.487
aF1.0
aF4.0
aF3.0
aF97.74
asVCc1ncc(N(=O)=O)n1CCO
p1405
(lp1406
F1.0
aF171.156
aF1.0
aF1.0
aF3.0
aF81.19
asVNc1ccc(Cl)cc1
p1407
(lp1408
F1.0
aF127.574
aF1.0
aF1.0
aF0.0
aF26.02
asVCCCC(C)(C)CO
p1409
(lp1410
F1.0
aF116.204
aF1.0
aF0.0
aF3.0
aF20.23
asVc1ccoc1
p1411
(lp1412
F2.0
aF68.075
aF0.0
aF1.0
aF0.0
aF13.14
asVCOCCCNc1nc(NC(C)C)nc(SC)n1
p1413
(lp1414
F1.0
aF271.39
aF2.0
aF1.0
aF8.0
aF71.96
asVCN(C)C(=O)NC1CC2CC1C3CCCC23
p1415
(lp1416
F1.0
aF222.332
aF1.0
aF3.0
aF1.0
aF32.34
asVCC(C)(C)c1ccccc1
p1417
(lp1418
F1.0
aF134.222
aF0.0
aF1.0
aF0.0
aF0.0
asVCC(=O)CCC1C(=O)N(N(C1=O)c2ccccc2)c3ccccc3
p1419
(lp1420
F1.0
aF322.364
aF0.0
aF3.0
aF5.0
aF57.69
asVCC(=O)OCC(=O)C3(O)CCC4C2CCC1=CC(=O)C=CC1(C)C2C(O)CC34C
p1421
(lp1422
F1.0
aF402.487
aF2.0
aF4.0
aF3.0
aF100.9
asVCCCOC
p1423
(lp1424
F1.0
aF74.123
aF0.0
aF0.0
aF2.0
aF9.23
asVCC(C)OC(=O)C
p1425
(lp1426
F1.0
aF102.133
aF0.0
aF0.0
aF1.0
aF26.3
asVBrc1ccccc1
p1427
(lp1428
F1.0
aF157.01
aF0.0
aF1.0
aF0.0
aF0.0
asVCCOC(=O)c1ccc(O)cc1
p1429
(lp1430
F1.0
aF166.176
aF1.0
aF1.0
aF2.0
aF46.53
asVO=C1N(COC(=O)CCC)C(=O)C(N1)(c2ccccc2)c3ccccc3
p1431
(lp1432
F1.0
aF352.39
aF1.0
aF3.0
aF6.0
aF75.71
asVCCC(=O)OC3CCC4C2CCC1=CC(=O)CCC1(C)C2CCC34C
p1433
(lp1434
F1.0
aF344.495
aF0.0
aF4.0
aF2.0
aF43.37
asVc1cc2ccc3ccc4ccc5ccc6ccc1c7c2c3c4c5c67
p1435
(lp1436
F2.0
aF300.36
aF0.0
aF7.0
aF0.0
aF0.0
asVO=c1[nH]cnc2[nH]ncc12
p1437
(lp1438
F1.0
aF136.114
aF2.0
aF2.0
aF0.0
aF74.43
asVClC=C
p1439
(lp1440
F1.0
aF62.499
aF0.0
aF0.0
aF0.0
aF0.0
asVCN(C)C(=O)C(c1ccccc1)c2ccccc2
p1441
(lp1442
F1.0
aF239.318
aF0.0
aF2.0
aF3.0
aF20.31
asVBrC(Br)(Br)Br
p1443
(lp1444
F1.0
aF331.627
aF0.0
aF0.0
aF0.0
aF0.0
asVCCN2c1cc(N(C)C)cc(C)c1NC(=O)c3cccnc23
p1445
(lp1446
F1.0
aF296.374
aF1.0
aF3.0
aF2.0
aF48.47
asVO=C1NC(=O)c2ccccc12
p1447
(lp1448
F1.0
aF147.133
aF1.0
aF2.0
aF0.0
aF46.17
asVOC(c1ccc(Cl)cc1)(c2cncnc2)c3ccccc3Cl
p1449
(lp1450
F1.0
aF331.202
aF1.0
aF3.0
aF3.0
aF46.01
asVCOC(=O)c1ccccc1
p1451
(lp1452
F1.0
aF136.15
aF0.0
aF1.0
aF1.0
aF26.3
asVCn1ccc(=O)[nH]c1=O
p1453
(lp1454
F1.0
aF126.115
aF1.0
aF1.0
aF0.0
aF54.86
asVCCCCC1C(=O)N(N(C1=O)c2ccc(O)cc2)c3ccccc3
p1455
(lp1456
F1.0
aF324.38
aF1.0
aF3.0
aF5.0
aF60.85
asVClc1ccc(Cl)c(c1)c2cccc(Cl)c2Cl
p1457
(lp1458
F1.0
aF291.992
aF0.0
aF2.0
aF1.0
aF0.0
asVCCC2NC(=O)c1cc(c(Cl)cc1N2)S(N)(=O)=O
p1459
(lp1460
F1.0
aF289.744
aF3.0
aF2.0
aF2.0
aF101.29
asVCN(C)C(=O)Nc1ccc(Cl)c(Cl)c1
p1461
(lp1462
F1.0
aF233.098
aF1.0
aF1.0
aF1.0
aF32.34
asVC1CC=CC1
p1463
(lp1464
F2.0
aF68.119
aF0.0
aF1.0
aF0.0
aF0.0
asVC1(=O)NC(=O)NC(=O)C1(O)C2(O)C(=O)NC(=O)NC2(=O)
p1465
(lp1466
F1.0
aF286.156
aF6.0
aF2.0
aF1.0
aF191.0
asVCCCCCCCCC
p1467
(lp1468
F1.0
aF128.259
aF0.0
aF0.0
aF6.0
aF0.0
asVOc1ccccc1Cl
p1469
(lp1470
F1.0
aF128.558
aF1.0
aF1.0
aF0.0
aF20.23
asVc1cccc2c3c(C)cc4ccccc4c3ccc12
p1471
(lp1472
F1.0
aF242.321
aF0.0
aF4.0
aF0.0
aF0.0
asVCCOc1ccccc1
p1473
(lp1474
F1.0
aF122.167
aF0.0
aF1.0
aF2.0
aF9.23
asVCCOC(=O)C=Cc1ccccc1
p1475
(lp1476
F1.0
aF176.215
aF0.0
aF1.0
aF3.0
aF26.3
asVCc1[nH]c(=O)n(c(=O)c1Cl)C(C)(C)C
p1477
(lp1478
F1.0
aF216.668
aF1.0
aF1.0
aF0.0
aF54.86
asVClc1ccccc1C2=NCC(=O)Nc3ccc(cc23)N(=O)=O
p1479
(lp1480
F1.0
aF315.716
aF1.0
aF3.0
aF2.0
aF84.6
asVCc1ccc(cc1)S(=O)(=O)N
p1481
(lp1482
F1.0
aF171.221
aF1.0
aF1.0
aF1.0
aF60.16
asVCC(OC(=O)Nc1cccc(Cl)c1)C#C
p1483
(lp1484
F1.0
aF223.659
aF1.0
aF1.0
aF2.0
aF38.33
asVCCCCCC(C)C
p1485
(lp1486
F1.0
aF114.232
aF0.0
aF0.0
aF4.0
aF0.0
asVCC1(C)C(C=C(Cl)C(F)(F)F)C1C(=O)OC(C#N)c2cccc(Oc3ccccc3)c2
p1487
(lp1488
F1.0
aF449.856
aF0.0
aF3.0
aF6.0
aF59.32
asVCCCC1C(=O)N3N(C1=O)c2cc(C)ccc2N=C3N(C)C
p1489
(lp1490
F1.0
aF300.362
aF0.0
aF3.0
aF2.0
aF56.22
asVCN2C(=O)CN=C(c1ccccc1)c3cc(Cl)ccc23
p1491
(lp1492
F1.0
aF284.746
aF0.0
aF3.0
aF1.0
aF32.67
asVCCC(O)C(C)C
p1493
(lp1494
F1.0
aF102.177
aF1.0
aF0.0
aF2.0
aF20.23
asVCCOP(=S)(OCC)Oc1ccc(cc1)S(C)=O
p1495
(lp1496
F1.0
aF308.361
aF0.0
aF1.0
aF7.0
aF44.76
asVCC1(C)C2CCC1(C)C(O)C2
p1497
(lp1498
F1.0
aF154.253
aF1.0
aF2.0
aF0.0
aF20.23
asVCC12CCC3C(CCC4=CC(=O)CCC34C)C2CCC1O
p1499
(lp1500
F1.0
aF288.431
aF1.0
aF4.0
aF0.0
aF37.3
asVCCCCCCC
p1501
(lp1502
F1.0
aF100.205
aF0.0
aF0.0
aF4.0
aF0.0
asVOc1cccc2ccccc12
p1503
(lp1504
F1.0
aF144.173
aF1.0
aF2.0
aF0.0
aF20.23
asVC/C1CCCCC1\u005cC
p1505
(lp1506
F1.0
aF112.216
aF0.0
aF1.0
aF0.0
aF0.0
asVCOc2cc1c(N)nc(nc1c(OC)c2OC)N3CCN(CC3)C(=O)OCC(C)(C)O
p1507
(lp1508
F1.0
aF435.481
aF2.0
aF3.0
aF6.0
aF132.5
asVC1Cc2c3c1cccc3cc4c2ccc5ccccc54
p1509
(lp1510
F2.0
aF254.332
aF0.0
aF5.0
aF0.0
aF0.0
asVCC(=O)C3(C)CCC4C2C=C(C)C1=CC(=O)CCC1(C)C2CCC34C
p1511
(lp1512
F1.0
aF340.507
aF0.0
aF4.0
aF1.0
aF34.14
asVCCCCCC(=O)C
p1513
(lp1514
F1.0
aF114.188
aF0.0
aF0.0
aF4.0
aF17.07
asVCOP(=O)(NC(C)=O)SC
p1515
(lp1516
F1.0
aF183.169
aF1.0
aF0.0
aF3.0
aF55.4
asVCCCCSP(=O)(SCCCC)SCCCC
p1517
(lp1518
F1.0
aF314.522
aF0.0
aF0.0
aF12.0
aF17.07
asVc1cC2C(=O)NC(=O)C2cc1
p1519
(lp1520
F1.0
aF149.149
aF1.0
aF2.0
aF0.0
aF46.17
asVNS(=O)(=O)c2cc1c(NC(NS1(=O)=O)C(Cl)Cl)cc2Cl
p1521
(lp1522
F1.0
aF380.662
aF3.0
aF2.0
aF2.0
aF118.36
asVCC=C(C)C
p1523
(lp1524
F1.0
aF70.135
aF0.0
aF0.0
aF0.0
aF0.0
asVCc1ccc(C)c(C)c1
p1525
(lp1526
F1.0
aF120.195
aF0.0
aF1.0
aF0.0
aF0.0
asVOc1cc(Cl)c(Cl)cc1Cl
p1527
(lp1528
F1.0
aF197.448
aF1.0
aF1.0
aF0.0
aF20.23
asVc1ccc2c(c1)cnc3ccccc23
p1529
(lp1530
F2.0
aF179.222
aF0.0
aF3.0
aF0.0
aF12.89
asVCCCC(C)(O)CC
p1531
(lp1532
F1.0
aF116.204
aF1.0
aF0.0
aF3.0
aF20.23
asVCCCCCCCC
p1533
(lp1534
F1.0
aF114.232
aF0.0
aF0.0
aF5.0
aF0.0
asVc1ccc2cc3ccccc3cc2c1
p1535
(lp1536
F2.0
aF178.234
aF0.0
aF3.0
aF0.0
aF0.0
asVNNc1ccccc1
p1537
(lp1538
F1.0
aF108.144
aF2.0
aF1.0
aF1.0
aF38.05
asVCCC=O
p1539
(lp1540
F1.0
aF58.08
aF0.0
aF0.0
aF1.0
aF17.07
asVC1CCCCCCC1
p1541
(lp1542
F2.0
aF112.216
aF0.0
aF1.0
aF0.0
aF0.0
asVO=C1NC(=O)NC(=O)C1(CC=C)CC=C
p1543
(lp1544
F1.0
aF208.217
aF2.0
aF1.0
aF4.0
aF75.27
asVClC(Cl)Cl
p1545
(lp1546
F1.0
aF119.378
aF0.0
aF0.0
aF0.0
aF0.0
asVSc1nccc(=O)[nH]1
p1547
(lp1548
F1.0
aF128.156
aF2.0
aF1.0
aF0.0
aF45.75
asVClc1ccc(CN(C2CCCC2)C(=O)Nc3ccccc3)cc1
p1549
(lp1550
F1.0
aF328.843
aF1.0
aF3.0
aF4.0
aF32.34
asVCC1=CCCCC1
p1551
(lp1552
F1.0
aF96.173
aF0.0
aF1.0
aF0.0
aF0.0
asVCCCCC(CC)C=O
p1553
(lp1554
F1.0
aF128.215
aF0.0
aF0.0
aF5.0
aF17.07
asVCOc2c1occc1c(OC)c3c(=O)cc(C)oc23
p1555
(lp1556
F1.0
aF260.245
aF0.0
aF3.0
aF2.0
aF61.81
asVO=C1NC(=O)NC(=O)C1(CC)CCC(C)C
p1557
(lp1558
F1.0
aF226.276
aF2.0
aF1.0
aF4.0
aF75.27
asVc1ccc2c3c(ccc2c1)c4cccc5cccc3c45
p1559
(lp1560
F2.0
aF252.316
aF0.0
aF5.0
aF0.0
aF0.0
asVCCC(CC)C=O
p1561
(lp1562
F1.0
aF100.161
aF0.0
aF0.0
aF3.0
aF17.07
asVCCCOCCC
p1563
(lp1564
F1.0
aF102.177
aF0.0
aF0.0
aF4.0
aF9.23
asVCCCCCCCCCCCCCCO
p1565
(lp1566
F1.0
aF214.393
aF1.0
aF0.0
aF12.0
aF20.23
asVOc1c(Cl)ccc(Cl)c1Cl
p1567
(lp1568
F1.0
aF197.448
aF1.0
aF1.0
aF0.0
aF20.23
asVNC(=O)N
p1569
(lp1570
F1.0
aF60.056
aF2.0
aF0.0
aF0.0
aF69.11
asVCCCC#C
p1571
(lp1572
F1.0
aF68.119
aF0.0
aF0.0
aF1.0
aF0.0
asVBrc1cccc(Br)c1
p1573
(lp1574
F1.0
aF235.906
aF0.0
aF1.0
aF0.0
aF0.0
asVCCCCCCCCCCCCCCCCCCO
p1575
(lp1576
F1.0
aF270.501
aF1.0
aF0.0
aF16.0
aF20.23
asVCC(=O)Nc1ccccc1
p1577
(lp1578
F1.0
aF135.166
aF1.0
aF1.0
aF1.0
aF29.1
asVc1cc(O)c(O)c2OCC3(O)CC4=CC(=O)C(O)=CC4=C3c21
p1579
(lp1580
F1.0
aF300.266
aF4.0
aF4.0
aF0.0
aF107.22
asVc1nccc(C(=O)NN)c1
p1581
(lp1582
F1.0
aF137.142
aF2.0
aF1.0
aF1.0
aF68.01
asVOC1C=CC2C1C3(Cl)C(=C(Cl)C2(Cl)C3(Cl)Cl)Cl
p1583
(lp1584
F1.0
aF354.875
aF1.0
aF3.0
aF0.0
aF20.23
asVCC(C)CCOC=O
p1585
(lp1586
F1.0
aF116.16
aF0.0
aF0.0
aF4.0
aF26.3
asVCC(=O)c1ccccc1
p1587
(lp1588
F1.0
aF120.151
aF0.0
aF1.0
aF1.0
aF17.07
asVc2ccc1nc(ccc1c2)c4ccc3ccccc3n4
p1589
(lp1590
F2.0
aF256.308
aF0.0
aF4.0
aF1.0
aF25.78
asVCCOP(=O)(OCC)OCC
p1591
(lp1592
F1.0
aF182.156
aF0.0
aF0.0
aF6.0
aF44.76
asVCC2(C)C1CCC(C)(C1)C2=O
p1593
(lp1594
F1.0
aF152.237
aF0.0
aF2.0
aF0.0
aF17.07
asVCOc2cnc1cncnc1n2
p1595
(lp1596
F1.0
aF162.152
aF0.0
aF2.0
aF1.0
aF60.79
asVClC2=C(Cl)C3(Cl)C1C=CCC1C2(Cl)C3(Cl)Cl
p1597
(lp1598
F1.0
aF338.876
aF0.0
aF3.0
aF0.0
aF0.0
asVCC(C)N(=O)=O
p1599
(lp1600
F1.0
aF89.094
aF0.0
aF0.0
aF1.0
aF43.14
asVc1ccc2c(c1)[nH]c3ccccc32
p1601
(lp1602
F2.0
aF167.211
aF1.0
aF3.0
aF0.0
aF15.79
asVOCC(O)C(O)CO
p1603
(lp1604
F1.0
aF122.12
aF4.0
aF0.0
aF3.0
aF80.92
asVCCCOC(=O)c1ccc(N)cc1
p1605
(lp1606
F1.0
aF179.219
aF1.0
aF1.0
aF3.0
aF52.32
asVCNC(=O)C=C(C)OP(=O)(OC)OC
p1607
(lp1608
F1.0
aF223.165
aF1.0
aF0.0
aF5.0
aF73.86
asVO=C1CCC(=O)N1
p1609
(lp1610
F1.0
aF99.089
aF1.0
aF1.0
aF0.0
aF46.17
asVCCC(C)C(C)C
p1611
(lp1612
F1.0
aF100.205
aF0.0
aF0.0
aF2.0
aF0.0
asVCCCCc1c(C)nc(NCC)nc1OS(=O)(=O)N(C)C
p1613
(lp1614
F1.0
aF316.427
aF1.0
aF1.0
aF8.0
aF84.42
asVCCN2c1ncccc1N(C)C(=S)c3cccnc23
p1615
(lp1616
F1.0
aF270.361
aF0.0
aF3.0
aF1.0
aF32.26
asVO2c1ccccc1N(CC)C(=O)c3ccccc23
p1617
(lp1618
F1.0
aF239.274
aF0.0
aF3.0
aF1.0
aF29.54
asVC1CCOCC1
p1619
(lp1620
F2.0
aF86.134
aF0.0
aF1.0
aF0.0
aF9.23
asVCCCCCC#C
p1621
(lp1622
F1.0
aF96.173
aF0.0
aF0.0
aF3.0
aF0.0
asVc1cc2ccc(OC)c(CC=C(C)(C))c2oc1=O
p1623
(lp1624
F1.0
aF244.29
aF0.0
aF2.0
aF3.0
aF39.44
asVc1cc(C)cc2c1c3cc4cccc5CCc(c45)c3cc2
p1625
(lp1626
F1.0
aF268.359
aF0.0
aF5.0
aF0.0
aF0.0
asVCCOC(=O)c1ccccc1
p1627
(lp1628
F1.0
aF150.177
aF0.0
aF1.0
aF2.0
aF26.3
asVClCC(C)C
p1629
(lp1630
F1.0
aF92.569
aF0.0
aF0.0
aF1.0
aF0.0
asVCC34CCC1C(CCc2cc(O)ccc12)C3CCC4(O)C#C
p1631
(lp1632
F1.0
aF296.41
aF2.0
aF4.0
aF0.0
aF40.46
asVCCCCCCCCCCCC(=O)OC
p1633
(lp1634
F1.0
aF214.349
aF0.0
aF0.0
aF10.0
aF26.3
asVCCCSCCC
p1635
(lp1636
F1.0
aF118.245
aF0.0
aF0.0
aF4.0
aF0.0
asVc1ccc2cc3cc4ccccc4cc3cc2c1
p1637
(lp1638
F2.0
aF228.294
aF0.0
aF4.0
aF0.0
aF0.0
asVCCCCCBr
p1639
(lp1640
F1.0
aF151.047
aF0.0
aF0.0
aF3.0
aF0.0
asVCCCC/C=C/C
p1641
(lp1642
F1.0
aF98.189
aF0.0
aF0.0
aF3.0
aF0.0
asVCCCCCC1CCCC1
p1643
(lp1644
F1.0
aF140.27
aF0.0
aF1.0
aF4.0
aF0.0
asVClc1ccc(Cl)c(c1)c2c(Cl)c(Cl)cc(Cl)c2Cl
p1645
(lp1646
F1.0
aF360.882
aF0.0
aF2.0
aF1.0
aF0.0
asVO=C1NC(=O)NC(=O)C1(CC)C(C)C
p1647
(lp1648
F1.0
aF198.222
aF2.0
aF1.0
aF2.0
aF75.27
asVCC(Cl)(Cl)Cl
p1649
(lp1650
F1.0
aF133.405
aF0.0
aF0.0
aF0.0
aF0.0
asVCON(C)C(=O)Nc1ccc(Cl)cc1
p1651
(lp1652
F1.0
aF214.652
aF1.0
aF1.0
aF2.0
aF41.57
asVO=C2NC(=O)C1(CCCCC1)C(=O)N2
p1653
(lp1654
F1.0
aF196.206
aF2.0
aF2.0
aF0.0
aF75.27
asVCN(C)C(=O)OC1=CC(=O)CC(C)(C)C1
p1655
(lp1656
F1.0
aF211.261
aF0.0
aF1.0
aF1.0
aF46.61
asVCc1ccc(Br)cc1
p1657
(lp1658
F1.0
aF171.037
aF0.0
aF1.0
aF0.0
aF0.0
asVCCOCC
p1659
(lp1660
F1.0
aF74.123
aF0.0
aF0.0
aF2.0
aF9.23
asVCC(C)NC(=O)N1CC(=O)N(C1=O)c2cc(Cl)cc(Cl)c2
p1661
(lp1662
F1.0
aF330.171
aF1.0
aF2.0
aF2.0
aF69.72
asVCCCCN(CC)c1c(cc(cc1N(=O)=O)C(F)(F)F)N(=O)=O
p1663
(lp1664
F1.0
aF335.282
aF0.0
aF1.0
aF7.0
aF89.52
asVCc1cc(C)c(O)c(C)c1
p1665
(lp1666
F1.0
aF136.194
aF1.0
aF1.0
aF0.0
aF20.23
asVc1ccccc1
p1667
(lp1668
F2.0
aF78.114
aF0.0
aF1.0
aF0.0
aF0.0
asVClc1ccc(I)cc1
p1669
(lp1670
F1.0
aF238.455
aF0.0
aF1.0
aF0.0
aF0.0
asVCOc1ccc(NC(=O)N(C)C)cc1Cl
p1671
(lp1672
F1.0
aF228.679
aF1.0
aF1.0
aF2.0
aF41.57
asVCC(C)N(C(=O)CCl)c1ccccc1
p1673
(lp1674
F1.0
aF211.692
aF0.0
aF1.0
aF3.0
aF20.31
asVC=Cc1ccccc1
p1675
(lp1676
F1.0
aF104.152
aF0.0
aF1.0
aF1.0
aF0.0
asVCOCOC
p1677
(lp1678
F1.0
aF76.095
aF0.0
aF0.0
aF2.0
aF18.46
asVCc1ccccc1C
p1679
(lp1680
F1.0
aF106.168
aF0.0
aF1.0
aF0.0
aF0.0
asVCCC(C)O
p1681
(lp1682
F1.0
aF74.123
aF1.0
aF0.0
aF1.0
aF20.23
asVOc1ccc(O)cc1
p1683
(lp1684
F1.0
aF110.112
aF2.0
aF1.0
aF0.0
aF40.46
asVCC34CCC1C(CCc2cc(O)ccc12)C3CC(O)C4O
p1685
(lp1686
F1.0
aF288.387
aF3.0
aF4.0
aF0.0
aF60.69
asVC1c2ccccc2c3cc4ccccc4cc13
p1687
(lp1688
F2.0
aF216.283
aF0.0
aF4.0
aF0.0
aF0.0
asVO=C1CNC(=O)N1
p1689
(lp1690
F1.0
aF100.077
aF2.0
aF1.0
aF0.0
aF58.2
asVc1(O)cc(O)ccc1CCCCCC
p1691
(lp1692
F1.0
aF194.274
aF2.0
aF1.0
aF5.0
aF40.46
asVC=CCS(=O)SCC=C
p1693
(lp1694
F1.0
aF162.279
aF0.0
aF0.0
aF5.0
aF17.07
asVCCOP(=S)(OCC)Oc2ccc1oc(=O)c(Cl)c(C)c1c2
p1695
(lp1696
F1.0
aF362.771
aF0.0
aF2.0
aF6.0
aF57.9
asVCc1c(C)c2c3ccccc3ccc2c4ccccc14
p1697
(lp1698
F1.0
aF256.348
aF0.0
aF4.0
aF0.0
aF0.0
asVCCCCC(=O)OC3(C(C)CC4C2CCC1=CC(=O)C=CC1(C)C2(F)C(O)CC34C)C(=O)CO
p1699
(lp1700
F1.0
aF476.585
aF2.0
aF4.0
aF6.0
aF100.9
asVO=c2[nH]c(=O)c1[nH]c(=O)[nH]c1[nH]2
p1701
(lp1702
F1.0
aF168.112
aF4.0
aF2.0
aF0.0
aF114.37
asVOc1c(Cl)cc(Cl)c(Cl)c1Cl
p1703
(lp1704
F1.0
aF231.893
aF1.0
aF1.0
aF0.0
aF20.23
asVClc1cccc(Cl)c1
p1705
(lp1706
F1.0
aF147.004
aF0.0
aF1.0
aF0.0
aF0.0
asVClc1ccc(cc1)C(c2ccc(Cl)cc2)C(Cl)(Cl)Cl
p1707
(lp1708
F1.0
aF354.491
aF0.0
aF2.0
aF2.0
aF0.0
asVCC(C)COC=O
p1709
(lp1710
F1.0
aF102.133
aF0.0
aF0.0
aF3.0
aF26.3
asVc1ccccc1SC
p1711
(lp1712
F1.0
aF124.208
aF0.0
aF1.0
aF1.0
aF0.0
asVCCN2c1nc(C)cc(C(F)(F)F)c1NC(=O)c3cccnc23
p1713
(lp1714
F1.0
aF322.29
aF1.0
aF3.0
aF1.0
aF58.12
asVCCCCCC
p1715
(lp1716
F1.0
aF86.178
aF0.0
aF0.0
aF3.0
aF0.0
asVCOC(=O)c1cccnc1
p1717
(lp1718
F1.0
aF137.138
aF0.0
aF1.0
aF1.0
aF39.19
asVNS(=O)(=O)c3cc2c(NC(Cc1ccccc1)NS2(=O)=O)cc3C(F)(F)F
p1719
(lp1720
F1.0
aF421.422
aF3.0
aF3.0
aF3.0
aF118.36
asVClc1ccc(cc1Cl)c2cc(Cl)c(Cl)c(Cl)c2Cl
p1721
(lp1722
F1.0
aF360.882
aF0.0
aF2.0
aF1.0
aF0.0
asVCC1(OC(=O)N(C1=O)c2cc(Cl)cc(Cl)c2)C=C
p1723
(lp1724
F1.0
aF286.114
aF0.0
aF2.0
aF2.0
aF46.61
asVCCNc1nc(Cl)nc(NC(C)(C)C#N)n1
p1725
(lp1726
F1.0
aF240.698
aF2.0
aF1.0
aF4.0
aF86.52
asVc1ccc2c(c1)c3ccccc3c4ccccc24
p1727
(lp1728
F2.0
aF228.294
aF0.0
aF4.0
aF0.0
aF0.0
asVCC=C(C(=CC)c1ccc(O)cc1)c2ccc(O)cc2
p1729
(lp1730
F1.0
aF266.34
aF2.0
aF2.0
aF3.0
aF40.46
asVCCCCC(CC)COC(=O)c1ccccc1C(=O)OCC(CC)CCCC
p1731
(lp1732
F1.0
aF390.564
aF0.0
aF1.0
aF14.0
aF52.6
asVCCc1ccccn1
p1733
(lp1734
F1.0
aF107.156
aF0.0
aF1.0
aF1.0
aF12.89
asVCOP(=O)(OC)OC(Br)C(Cl)(Cl)Br
p1735
(lp1736
F1.0
aF380.784
aF0.0
aF0.0
aF5.0
aF44.76
asVc1ccc(cc1)c2ccccc2
p1737
(lp1738
F2.0
aF154.212
aF0.0
aF2.0
aF1.0
aF0.0
asVClc1cc(Cl)c(c(Cl)c1)c2c(Cl)cc(Cl)cc2Cl
p1739
(lp1740
F1.0
aF360.882
aF0.0
aF2.0
aF1.0
aF0.0
asVCN(C)c1nc(nc(n1)N(C)C)N(C)C
p1741
(lp1742
F1.0
aF210.285
aF0.0
aF1.0
aF3.0
aF48.39
asVCC(C)CC(C)(C)O
p1743
(lp1744
F1.0
aF116.204
aF1.0
aF0.0
aF2.0
aF20.23
asVO=C2NC(=O)C1(CCCCCC1)C(=O)N2
p1745
(lp1746
F1.0
aF210.233
aF2.0
aF2.0
aF0.0
aF75.27
asVOCC1OC(O)(CO)C(O)C1O
p1747
(lp1748
F1.0
aF180.156
aF5.0
aF1.0
aF2.0
aF110.38
asVCc1cc(C)cc(O)c1
p1749
(lp1750
F1.0
aF122.167
aF1.0
aF1.0
aF0.0
aF20.23
asVClCC#CCOC(=O)Nc1cccc(Cl)c1
p1751
(lp1752
F1.0
aF258.104
aF1.0
aF1.0
aF2.0
aF38.33
asVCC(=O)Nc1ccc(Cl)cc1
p1753
(lp1754
F1.0
aF169.611
aF1.0
aF1.0
aF1.0
aF29.1
asVClc1ccc(Cl)c(c1)c2c(Cl)c(Cl)c(Cl)c(Cl)c2Cl
p1755
(lp1756
F1.0
aF395.327
aF0.0
aF2.0
aF1.0
aF0.0
asVCCC(C)(C)C
p1757
(lp1758
F1.0
aF86.178
aF0.0
aF0.0
aF0.0
aF0.0
asVCNc1ccccc1
p1759
(lp1760
F1.0
aF107.156
aF1.0
aF1.0
aF1.0
aF12.03
asVC=CCC=C
p1761
(lp1762
F1.0
aF68.119
aF0.0
aF0.0
aF2.0
aF0.0
asVCC(=O)OCC(=O)C1(O)CCC2C3CCC4=CC(=O)CCC4(C)C3C(O)CC21C
p1763
(lp1764
F1.0
aF404.503
aF2.0
aF4.0
aF3.0
aF100.9
asVCc1cc(cc(N(=O)=O)c1O)N(=O)=O
p1765
(lp1766
F1.0
aF198.134
aF1.0
aF1.0
aF2.0
aF106.51
asVOC3N=C(c1ccccc1Cl)c2cc(Cl)ccc2NC3=O
p1767
(lp1768
F1.0
aF321.163
aF2.0
aF3.0
aF1.0
aF61.69
asVOc1cccc(Cl)c1
p1769
(lp1770
F1.0
aF128.558
aF1.0
aF1.0
aF0.0
aF20.23
asVClc1cccc(Br)c1
p1771
(lp1772
F1.0
aF191.455
aF0.0
aF1.0
aF0.0
aF0.0
asVNS(=O)(=O)c2cc1c(N=CNS1(=O)=O)cc2Cl
p1773
(lp1774
F1.0
aF295.729
aF2.0
aF2.0
aF1.0
aF118.69
asVO=C1NC(=O)NC(=O)C1(C)CC
p1775
(lp1776
F1.0
aF170.168
aF2.0
aF1.0
aF1.0
aF75.27
asVOCCOc1ccccc1
p1777
(lp1778
F1.0
aF138.166
aF1.0
aF1.0
aF3.0
aF29.46
asVC(c1ccccc1)c2ccccc2
p1779
(lp1780
F2.0
aF168.239
aF0.0
aF2.0
aF2.0
aF0.0
asVCCCCCC(O)CC
p1781
(lp1782
F1.0
aF130.231
aF1.0
aF0.0
aF5.0
aF20.23
asVCCN(Cc1c(F)cccc1Cl)c2c(cc(cc2N(=O)=O)C(F)(F)F)N(=O)=O
p1783
(lp1784
F1.0
aF421.734
aF0.0
aF2.0
aF6.0
aF89.52
asVCC(C)Nc1nc(Cl)nc(NC(C)C)n1
p1785
(lp1786
F1.0
aF229.715
aF2.0
aF1.0
aF4.0
aF62.73
asVCCCC(C)CO
p1787
(lp1788
F1.0
aF102.177
aF1.0
aF0.0
aF3.0
aF20.23
asVCCCCC(C)(C)O
p1789
(lp1790
F1.0
aF116.204
aF1.0
aF0.0
aF3.0
aF20.23
asVCCc1ccccc1
p1791
(lp1792
F1.0
aF106.168
aF0.0
aF1.0
aF1.0
aF0.0
asVO=C1NC(=O)NC(=O)C1(CC)CC=C(C)C
p1793
(lp1794
F1.0
aF224.26
aF2.0
aF1.0
aF3.0
aF75.27
asVClC1C=CC2C1C3(Cl)C(=C(Cl)C2(Cl)C3(Cl)Cl)Cl
p1795
(lp1796
F1.0
aF373.321
aF0.0
aF3.0
aF0.0
aF0.0
asVCCC(C)C1(CC(Br)=C)C(=O)NC(=O)NC1=O
p1797
(lp1798
F1.0
aF303.156
aF2.0
aF1.0
aF4.0
aF75.27
asVCC1(C)C(C(=O)OC(C#N)c2cccc(Oc3ccccc3)c2)C1(C)C
p1799
(lp1800
F1.0
aF349.43
aF0.0
aF3.0
aF5.0
aF59.32
asVCOC(C)(C)CCCC(C)CC=CC(C)=CC(=O)OC(C)C
p1801
(lp1802
F1.0
aF310.478
aF0.0
aF0.0
aF10.0
aF35.53
asVCCOC(=O)CC
p1803
(lp1804
F1.0
aF102.133
aF0.0
aF0.0
aF2.0
aF26.3
asVCSc1nc(NC(C)C)nc(NC(C)C)n1
p1805
(lp1806
F1.0
aF241.364
aF2.0
aF1.0
aF5.0
aF62.73
asVCC(C#C)N(C)C(=O)Nc1ccc(Cl)cc1
p1807
(lp1808
F1.0
aF236.702
aF1.0
aF1.0
aF2.0
aF32.34
asVCc1cc2ccccc2cc1C
p1809
(lp1810
F1.0
aF156.228
aF0.0
aF2.0
aF0.0
aF0.0
asVClc1ccc(cc1)c2cc(Cl)ccc2Cl
p1811
(lp1812
F1.0
aF257.547
aF0.0
aF2.0
aF1.0
aF0.0
asVClc1ccc(c(Cl)c1)c2cc(Cl)c(Cl)c(Cl)c2Cl
p1813
(lp1814
F1.0
aF360.882
aF0.0
aF2.0
aF1.0
aF0.0
asVNC(N)=NC#N
p1815
(lp1816
F1.0
aF84.082
aF2.0
aF0.0
aF0.0
aF88.19
asVClC(Cl)(Cl)N(=O)=O
p1817
(lp1818
F1.0
aF164.375
aF0.0
aF0.0
aF0.0
aF43.14
asVClc1cccc(Cl)c1c2ccccc2
p1819
(lp1820
F1.0
aF223.102
aF0.0
aF2.0
aF1.0
aF0.0
asVCOc1ccc(C=O)cc1
p1821
(lp1822
F1.0
aF136.15
aF0.0
aF1.0
aF2.0
aF26.3
asVCC(=O)Nc1ccc(cc1)N(=O)=O
p1823
(lp1824
F1.0
aF180.163
aF1.0
aF1.0
aF2.0
aF72.24
asVCCCCCCC(=O)OCC
p1825
(lp1826
F1.0
aF158.241
aF0.0
aF0.0
aF6.0
aF26.3
asVCC(=O)Nc1ccc(O)cc1
p1827
(lp1828
F1.0
aF151.165
aF2.0
aF1.0
aF1.0
aF49.33
asVc2ccc1[nH]ncc1c2
p1829
(lp1830
F2.0
aF118.139
aF1.0
aF2.0
aF0.0
aF28.68
asVCC5(C)OC4CC3C2CCC1=CC(=O)C=CC1(C)C2(F)C(O)CC3(C)C4(O5)C(=O)CO
p1831
(lp1832
F1.0
aF434.504
aF2.0
aF5.0
aF2.0
aF93.06
asVNc2nc1[nH]cnc1c(=O)[nH]2
p1833
(lp1834
F1.0
aF151.129
aF3.0
aF2.0
aF0.0
aF100.45
asVCOC(=O)C
p1835
(lp1836
F1.0
aF74.079
aF0.0
aF0.0
aF0.0
aF26.3
asVCC34CCC1C(CCC2CC(=O)CCC12C)C3CCC4O
p1837
(lp1838
F1.0
aF290.447
aF1.0
aF4.0
aF0.0
aF37.3
asVCCCC(O)C=C
p1839
(lp1840
F1.0
aF100.161
aF1.0
aF0.0
aF3.0
aF20.23
asVOC(C1=CC2C5C(C1C2=C(c3ccccc3)c4ccccn4)C(=O)NC5=O)(c6ccccc6)c7ccccn7
p1841
(lp1842
F1.0
aF511.581
aF2.0
aF7.0
aF5.0
aF92.18
asVCCCCOCCCC
p1843
(lp1844
F1.0
aF130.231
aF0.0
aF0.0
aF6.0
aF9.23
asVCCCCCCCCCCCCO
p1845
(lp1846
F1.0
aF186.339
aF1.0
aF0.0
aF10.0
aF20.23
asVCCN2c1nc(N(C)(CCO))ccc1NC(=O)c3cccnc23
p1847
(lp1848
F1.0
aF313.361
aF2.0
aF3.0
aF4.0
aF81.59
asVCCCC(C)(C)O
p1849
(lp1850
F1.0
aF102.177
aF1.0
aF0.0
aF2.0
aF20.23
asVNc1nc(=O)[nH]cc1F
p1851
(lp1852
F1.0
aF129.094
aF2.0
aF1.0
aF0.0
aF71.77
asVCCCCOc1ccc(C(=O)OCC)c(c1)N(CC)CC
p1853
(lp1854
F1.0
aF293.407
aF0.0
aF1.0
aF9.0
aF38.77
asVCCCCCC(C)(C)O
p1855
(lp1856
F1.0
aF130.231
aF1.0
aF0.0
aF4.0
aF20.23
asVCc1c(C)c(C)c(C)c(C)c1C
p1857
(lp1858
F1.0
aF162.276
aF0.0
aF1.0
aF0.0
aF0.0
asVCC(C)c1ccc(C)cc1O
p1859
(lp1860
F1.0
aF150.221
aF1.0
aF1.0
aF1.0
aF20.23
asVc2cnc1ncncc1n2
p1861
(lp1862
F2.0
aF132.126
aF0.0
aF2.0
aF0.0
aF51.56
asVCCOP(=S)(OCC)Oc1ccc(cc1)N(=O)=O
p1863
(lp1864
F1.0
aF291.265
aF0.0
aF1.0
aF7.0
aF70.83
asVC
p1865
(lp1866
F0.0
aF16.043
aF0.0
aF0.0
aF0.0
aF0.0
asVc2ccc1NCCc1c2
p1867
(lp1868
F2.0
aF119.167
aF1.0
aF2.0
aF0.0
aF12.03
asVO=N(=O)c1cccc2ccccc12
p1869
(lp1870
F1.0
aF173.171
aF0.0
aF2.0
aF1.0
aF43.14
asVCCC(C)C(=O)C
p1871
(lp1872
F1.0
aF100.161
aF0.0
aF0.0
aF2.0
aF17.07
asVNc1nc(O)nc2nc[nH]c12
p1873
(lp1874
F1.0
aF151.129
aF3.0
aF2.0
aF0.0
aF100.71
asVOC(CC(c1ccccc1)c3c(O)c2ccccc2oc3=O)c4ccc(cc4)c5ccc(Br)cc5
p1875
(lp1876
F1.0
aF527.414
aF2.0
aF5.0
aF6.0
aF70.67
asVCN(=O)=O
p1877
(lp1878
F1.0
aF61.04
aF0.0
aF0.0
aF0.0
aF43.14
asVCC(C)N(C(C)C)C(=O)SCC(Cl)=C(Cl)Cl
p1879
(lp1880
F1.0
aF304.67
aF0.0
aF0.0
aF4.0
aF20.31
asVC=CCCC=C
p1881
(lp1882
F1.0
aF82.146
aF0.0
aF0.0
aF3.0
aF0.0
asVc2ccc1[nH]ccc1c2
p1883
(lp1884
F2.0
aF117.151
aF1.0
aF2.0
aF0.0
aF15.79
asVCC34CCC1C(CCC2=CC(=O)CCC12C)C3CCC4=O
p1885
(lp1886
F1.0
aF286.415
aF0.0
aF4.0
aF0.0
aF34.14
asVCCCCC=C
p1887
(lp1888
F1.0
aF84.162
aF0.0
aF0.0
aF3.0
aF0.0
asVCc1cccc(C)c1NC(=O)c2cc(c(Cl)cc2O)S(N)(=O)=O
p1889
(lp1890
F1.0
aF354.815
aF3.0
aF2.0
aF3.0
aF109.49
asVCCC1CCCCC1
p1891
(lp1892
F1.0
aF112.216
aF0.0
aF1.0
aF1.0
aF0.0
asVCCCCCCCC(=O)C
p1893
(lp1894
F1.0
aF142.242
aF0.0
aF0.0
aF6.0
aF17.07
asVCOC(=O)Nc2nc1ccc(cc1[nH]2)C(=O)c3ccccc3
p1895
(lp1896
F1.0
aF295.298
aF2.0
aF3.0
aF3.0
aF84.08
asVCC(C)OC(=O)Nc1cccc(Cl)c1
p1897
(lp1898
F1.0
aF213.664
aF1.0
aF1.0
aF2.0
aF38.33
asVCCN2c1nc(Cl)ccc1N(C)C(=O)c3cccnc23
p1899
(lp1900
F1.0
aF288.738
aF0.0
aF3.0
aF1.0
aF49.33
asVCNC(=O)Oc1cccc2ccccc12
p1901
(lp1902
F1.0
aF201.225
aF1.0
aF2.0
aF1.0
aF38.33
asVC#C
p1903
(lp1904
F1.0
aF26.038
aF0.0
aF0.0
aF0.0
aF0.0
asVCc1cncc(C)c1
p1905
(lp1906
F1.0
aF107.156
aF0.0
aF1.0
aF0.0
aF12.89
asVC1C=CCC=C1
p1907
(lp1908
F2.0
aF80.13
aF0.0
aF1.0
aF0.0
aF0.0
asVCCOC(=O)N(C)C(=O)CSP(=S)(OCC)OCC
p1909
(lp1910
F1.0
aF329.38
aF0.0
aF0.0
aF8.0
aF65.07
asVCC(O)c1ccccc1
p1911
(lp1912
F1.0
aF122.167
aF1.0
aF1.0
aF1.0
aF20.23
asVCC(Cl)CCl
p1913
(lp1914
F1.0
aF112.987
aF0.0
aF0.0
aF1.0
aF0.0
asVCCCC=C(CC)C=O
p1915
(lp1916
F1.0
aF126.199
aF0.0
aF0.0
aF4.0
aF17.07
asVCCOP(=S)(OCC)SCCSCC
p1917
(lp1918
F1.0
aF274.413
aF0.0
aF0.0
aF9.0
aF18.46
asVCC(=O)OC3(C)CCC4C2CCC1=CC(=O)CCC1(C)C2CCC34C
p1919
(lp1920
F1.0
aF344.495
aF0.0
aF4.0
aF1.0
aF43.37
asVClc1ccc(cc1)c2c(Cl)cccc2Cl
p1921
(lp1922
F1.0
aF257.547
aF0.0
aF2.0
aF1.0
aF0.0
asVFc1cccc(F)c1C(=O)NC(=O)Nc2ccc(Cl)cc2
p1923
(lp1924
F1.0
aF310.687
aF2.0
aF2.0
aF2.0
aF58.2
asVOc1cc(Cl)ccc1Oc2ccc(Cl)cc2Cl
p1925
(lp1926
F1.0
aF289.545
aF1.0
aF2.0
aF2.0
aF29.46
asVc1(C(=O)OCCCCCC(C)(C))c(C(=O)OCCCCCC(C)(C))cccc1
p1927
(lp1928
F1.0
aF390.564
aF0.0
aF1.0
aF14.0
aF52.6
asVCC12CC(O)C3C(CCC4=CC(=O)CCC34C)C2CCC1C(=O)CO
p1929
(lp1930
F1.0
aF346.467
aF2.0
aF4.0
aF2.0
aF74.6
asVCc1cc(C)cc(C)c1
p1931
(lp1932
F1.0
aF120.195
aF0.0
aF1.0
aF0.0
aF0.0
asVCCCCCCCCOC(=O)c1ccccc1C(=O)OCCCCCCCC
p1933
(lp1934
F1.0
aF390.564
aF0.0
aF1.0
aF16.0
aF52.6
asVCCCCCCCCCCCCCCCO
p1935
(lp1936
F1.0
aF228.42
aF1.0
aF0.0
aF13.0
aF20.23
asVClc1cccc(Cl)c1c2c(Cl)cccc2Cl
p1937
(lp1938
F1.0
aF291.992
aF0.0
aF2.0
aF1.0
aF0.0
asVO=C1NC(=O)NC(=O)C1(C)C
p1939
(lp1940
F1.0
aF156.141
aF2.0
aF1.0
aF0.0
aF75.27
asVCC(C)I
p1941
(lp1942
F1.0
aF169.993
aF0.0
aF0.0
aF0.0
aF0.0
asVO=N(=O)c1ccccc1N(=O)=O
p1943
(lp1944
F1.0
aF168.108
aF0.0
aF1.0
aF2.0
aF86.28
asVCC(C)C(=O)C
p1945
(lp1946
F1.0
aF86.134
aF0.0
aF0.0
aF1.0
aF17.07
asVCCCCCCCCCCCCCCCC
p1947
(lp1948
F1.0
aF226.448
aF0.0
aF0.0
aF13.0
aF0.0
asVCc2cccc3sc1nncn1c23
p1949
(lp1950
F1.0
aF189.243
aF0.0
aF3.0
aF0.0
aF30.19
asVCCCCCCC(=O)C
p1951
(lp1952
F1.0
aF128.215
aF0.0
aF0.0
aF5.0
aF17.07
asVCCCCCCCCC(=O)OC
p1953
(lp1954
F1.0
aF172.268
aF0.0
aF0.0
aF7.0
aF26.3
asVFc1ccc(F)cc1
p1955
(lp1956
F1.0
aF114.094
aF0.0
aF1.0
aF0.0
aF0.0
asVO=C1N(C2CCC(=O)NC2=O)C(=O)c3ccccc13
p1957
(lp1958
F1.0
aF258.233
aF1.0
aF3.0
aF1.0
aF83.55
asVCCCN(CCC)c1c(cc(cc1N(=O)=O)C(F)(F)F)N(=O)=O
p1959
(lp1960
F1.0
aF335.282
aF0.0
aF1.0
aF7.0
aF89.52
asVCCO
p1961
(lp1962
F1.0
aF46.069
aF1.0
aF0.0
aF0.0
aF20.23
asVO=C2NC(=O)C1(CCCC1)C(=O)N2
p1963
(lp1964
F1.0
aF182.179
aF2.0
aF2.0
aF0.0
aF75.27
asVc1c(NC(=O)OC(C)C(=O)NCC)cccc1
p1965
(lp1966
F1.0
aF236.271
aF2.0
aF1.0
aF4.0
aF67.43
asVCC(C)=CC3C(C(=O)OCc2cccc(Oc1ccccc1)c2)C3(C)C
p1967
(lp1968
F1.0
aF350.458
aF0.0
aF3.0
aF6.0
aF35.53
asVCN(C)C(=O)NC1CCCCCCC1
p1969
(lp1970
F1.0
aF198.31
aF1.0
aF1.0
aF1.0
aF32.34
asVClC1(C2(Cl)C3(Cl)C4(Cl)C5(Cl)C1(Cl)C3(Cl)Cl)C5(Cl)C(Cl)(Cl)C24Cl
p1971
(lp1972
F1.0
aF545.546
aF0.0
aF6.0
aF0.0
aF0.0
asVCCCCCCCCBr
p1973
(lp1974
F1.0
aF193.128
aF0.0
aF0.0
aF6.0
aF0.0
asVCCCCNC(=O)n1c(NC(=O)OC)nc2ccccc12
p1975
(lp1976
F1.0
aF290.323
aF2.0
aF2.0
aF4.0
aF85.25
asVCN(C)c2c(C)n(C)n(c1ccccc1)c2=O
p1977
(lp1978
F1.0
aF231.299
aF0.0
aF2.0
aF2.0
aF30.17
asVCCC(O)CC
p1979
(lp1980
F1.0
aF88.15
aF1.0
aF0.0
aF2.0
aF20.23
asVCc1ccc(cc1)N(=O)=O
p1981
(lp1982
F1.0
aF137.138
aF0.0
aF1.0
aF1.0
aF43.14
asVCC(C)CCCO
p1983
(lp1984
F1.0
aF102.177
aF1.0
aF0.0
aF3.0
aF20.23
asVCC34CCC1C(CCC2=CC(=O)CCC12O)C3CCC4(O)C#C
p1985
(lp1986
F1.0
aF314.425
aF2.0
aF4.0
aF0.0
aF57.53
asVCC(C)OC(=O)C(O)(c1ccc(Br)cc1)c2ccc(Br)cc2
p1987
(lp1988
F1.0
aF428.12
aF1.0
aF2.0
aF4.0
aF46.53
asVNc2cnn(c1ccccc1)c(=O)c2Cl
p1989
(lp1990
F1.0
aF221.647
aF1.0
aF2.0
aF1.0
aF60.91
asVCCC(C)(C)O
p1991
(lp1992
F1.0
aF88.15
aF1.0
aF0.0
aF1.0
aF20.23
asVCc1ccc(O)cc1
p1993
(lp1994
F1.0
aF108.14
aF1.0
aF1.0
aF0.0
aF20.23
asVCCOC=O
p1995
(lp1996
F1.0
aF74.079
aF0.0
aF0.0
aF2.0
aF26.3
asVCN(C)c1ccccc1
p1997
(lp1998
F1.0
aF121.183
aF0.0
aF1.0
aF1.0
aF3.24
asVC1CCC2CCCCC2C1
p1999
(lp2000
F2.0
aF138.254
aF0.0
aF2.0
aF0.0
aF0.0
asVCCCCS
p2001
(lp2002
F1.0
aF90.191
aF1.0
aF0.0
aF2.0
aF0.0
asVc1ccc2c(c1)c3cccc4ccc5cccc2c5c43
p2003
(lp2004
F2.0
aF252.316
aF0.0
aF5.0
aF0.0
aF0.0
asVClC(=C(Cl)Cl)Cl
p2005
(lp2006
F1.0
aF165.834
aF0.0
aF0.0
aF0.0
aF0.0
asVCCC(=O)CC
p2007
(lp2008
F1.0
aF86.134
aF0.0
aF0.0
aF2.0
aF17.07
asVC=CC#N
p2009
(lp2010
F1.0
aF53.064
aF0.0
aF0.0
aF0.0
aF23.79
asVCC1CC2C3CC(F)C4=CC(=O)C=CC4(C)C3(F)C(O)CC2(C)C1(O)C(=O)CO
p2011
(lp2012
F1.0
aF410.457
aF3.0
aF4.0
aF2.0
aF94.83
asVCCCCC(=O)C
p2013
(lp2014
F1.0
aF100.161
aF0.0
aF0.0
aF3.0
aF17.07
asVCCNc1nc(NC(C)(C)C)nc(OC)n1
p2015
(lp2016
F1.0
aF225.296
aF2.0
aF1.0
aF4.0
aF71.96
asVCCCCC(C)CC
p2017
(lp2018
F1.0
aF114.232
aF0.0
aF0.0
aF4.0
aF0.0
asVBrCCBr
p2019
(lp2020
F1.0
aF187.862
aF0.0
aF0.0
aF1.0
aF0.0
asVCNC(=O)Oc1ccccc1C(C)C
p2021
(lp2022
F1.0
aF193.246
aF1.0
aF1.0
aF2.0
aF38.33
asVO=C1NCCN1c2ncc(s2)N(=O)=O
p2023
(lp2024
F1.0
aF214.206
aF1.0
aF2.0
aF2.0
aF88.37
asVC1c2ccccc2c3ccc4ccccc4c13
p2025
(lp2026
F2.0
aF216.283
aF0.0
aF4.0
aF0.0
aF0.0
asVCOc1ccccc1Cl
p2027
(lp2028
F1.0
aF142.585
aF0.0
aF1.0
aF1.0
aF9.23
asVCOP(=S)(OC)Oc1cc(Cl)c(Br)cc1Cl
p2029
(lp2030
F1.0
aF366.0
aF0.0
aF1.0
aF4.0
aF27.69
asVClC(Cl)CC(=O)NC2=C(Cl)C(=O)c1ccccc1C2=O
p2031
(lp2032
F1.0
aF332.57
aF1.0
aF2.0
aF3.0
aF63.24
asVCOC(=O)C=C
p2033
(lp2034
F1.0
aF86.09
aF0.0
aF0.0
aF1.0
aF26.3
asVCN(C)C(=O)Nc2ccc(Oc1ccc(Cl)cc1)cc2
p2035
(lp2036
F1.0
aF290.75
aF1.0
aF2.0
aF3.0
aF41.57
asVN(=Nc1ccccc1)c2ccccc2
p2037
(lp2038
F2.0
aF182.226
aF0.0
aF2.0
aF2.0
aF24.72
asVCC(C)c1ccc(C)cc1
p2039
(lp2040
F1.0
aF134.222
aF0.0
aF1.0
aF1.0
aF0.0
asVOc1c(Cl)cccc1Cl
p2041
(lp2042
F1.0
aF163.003
aF1.0
aF1.0
aF0.0
aF20.23
asVOCC2OC(OC1(CO)OC(CO)C(O)C1O)C(O)C(O)C2O
p2043
(lp2044
F1.0
aF342.297
aF8.0
aF2.0
aF5.0
aF189.53
asVOC1C(O)C(O)C(O)C(O)C1O
p2045
(lp2046
F1.0
aF180.156
aF6.0
aF1.0
aF0.0
aF121.38
asVCn2c(=O)n(C)c1ncn(CC(O)CO)c1c2=O
p2047
(lp2048
F1.0
aF254.246
aF2.0
aF2.0
aF3.0
aF102.28
asVOCC(NC(=O)C(Cl)Cl)C(O)c1ccc(cc1)N(=O)=O
p2049
(lp2050
F1.0
aF323.132
aF3.0
aF1.0
aF6.0
aF112.7
asVCCC(O)(CC)CC
p2051
(lp2052
F1.0
aF116.204
aF1.0
aF0.0
aF3.0
aF20.23
asVCC45CCC2C(CCC3CC1SC1CC23C)C4CCC5O
p2053
(lp2054
F1.0
aF306.515
aF1.0
aF5.0
aF0.0
aF20.23
asVBrc1ccccc1Br
p2055
(lp2056
F1.0
aF235.906
aF0.0
aF1.0
aF0.0
aF0.0
asVOc1c(Cl)cc(Cl)cc1Cl
p2057
(lp2058
F1.0
aF197.448
aF1.0
aF1.0
aF0.0
aF20.23
asVCCCN(CCC)c1c(cc(cc1N(=O)=O)S(N)(=O)=O)N(=O)=O
p2059
(lp2060
F1.0
aF346.365
aF1.0
aF1.0
aF8.0
aF149.68
asVC2c1ccccc1N(CCF)C(=O)c3ccccc23
p2061
(lp2062
F1.0
aF255.292
aF0.0
aF3.0
aF2.0
aF20.31
asVCC(C)C(=O)C(C)C
p2063
(lp2064
F1.0
aF114.188
aF0.0
aF0.0
aF2.0
aF17.07
asVO=C1NC(=O)NC(=O)C1(C(C)C)CC=C(C)C
p2065
(lp2066
F1.0
aF238.287
aF2.0
aF1.0
aF3.0
aF75.27
asVc1c(O)C2C(=O)C3cc(O)ccC3OC2cc1(OC)
p2067
(lp2068
F1.0
aF262.261
aF2.0
aF3.0
aF1.0
aF75.99
asVCn1cnc2n(C)c(=O)n(C)c(=O)c12
p2069
(lp2070
F1.0
aF194.194
aF0.0
aF2.0
aF0.0
aF61.82
asVCC(=O)SC4CC1=CC(=O)CCC1(C)C5CCC2(C)C(CCC23CCC(=O)O3)C45
p2071
(lp2072
F1.0
aF416.583
aF0.0
aF5.0
aF1.0
aF60.44
asVCc1ccc(O)cc1C
p2073
(lp2074
F1.0
aF122.167
aF1.0
aF1.0
aF0.0
aF20.23
asVO(c1ccccc1)c2ccccc2
p2075
(lp2076
F2.0
aF170.211
aF0.0
aF2.0
aF2.0
aF9.23
asVClc1cc(Cl)c(cc1Cl)c2cc(Cl)c(Cl)cc2Cl
p2077
(lp2078
F1.0
aF360.882
aF0.0
aF2.0
aF1.0
aF0.0
asVNC(=O)c1cccnc1
p2079
(lp2080
F1.0
aF122.127
aF1.0
aF1.0
aF1.0
aF55.98
asVSc1ccccc1
p2081
(lp2082
F1.0
aF110.181
aF1.0
aF1.0
aF0.0
aF0.0
asVCNC(=O)Oc1cc(C)cc(C)c1
p2083
(lp2084
F1.0
aF179.219
aF1.0
aF1.0
aF1.0
aF38.33
asVClC1CC2C(C1Cl)C3(Cl)C(=C(Cl)C2(Cl)C3(Cl)Cl)Cl
p2085
(lp2086
F1.0
aF409.782
aF0.0
aF3.0
aF0.0
aF0.0
asVCSSC
p2087
(lp2088
F1.0
aF94.204
aF0.0
aF0.0
aF1.0
aF0.0
asVNC(=O)c1ccccc1
p2089
(lp2090
F1.0
aF121.139
aF1.0
aF1.0
aF1.0
aF43.09
asVClc1ccccc1Br
p2091
(lp2092
F1.0
aF191.455
aF0.0
aF1.0
aF0.0
aF0.0
asVCOC(=O)c1ccccc1OC2OC(COC3OCC(O)C(O)C3O)C(O)C(O)C2O
p2093
(lp2094
F1.0
aF446.405
aF6.0
aF3.0
aF6.0
aF184.6
asVCCCCC(O)CC
p2095
(lp2096
F1.0
aF116.204
aF1.0
aF0.0
aF4.0
aF20.23
asVCCN2c1nc(C)cc(C)c1NC(=O)c3cccnc23
p2097
(lp2098
F1.0
aF268.32
aF1.0
aF3.0
aF1.0
aF58.12
asVOc1cc(Cl)cc(Cl)c1
p2099
(lp2100
F1.0
aF163.003
aF1.0
aF1.0
aF0.0
aF20.23
asVCc1cccc2c1ccc3ccccc32
p2101
(lp2102
F1.0
aF192.261
aF0.0
aF3.0
aF0.0
aF0.0
asVCCCCC(CC)CO
p2103
(lp2104
F1.0
aF130.231
aF1.0
aF0.0
aF5.0
aF20.23
asVCC(C)N(C(C)C)C(=O)SCC(=CCl)Cl
p2105
(lp2106
F1.0
aF270.225
aF0.0
aF0.0
aF4.0
aF20.31
asVCc1ccccc1
p2107
(lp2108
F1.0
aF92.141
aF0.0
aF1.0
aF0.0
aF0.0
asVClc1cccc(n1)C(Cl)(Cl)Cl
p2109
(lp2110
F1.0
aF230.909
aF0.0
aF1.0
aF0.0
aF12.89
asVC1CCC=CCC1
p2111
(lp2112
F2.0
aF96.173
aF0.0
aF1.0
aF0.0
aF0.0
asVCN(C)C(=S)SSC(=S)N(C)C
p2113
(lp2114
F1.0
aF240.444
aF0.0
aF0.0
aF0.0
aF6.48
asVCOC1=CC(=O)CC(C)C13Oc2c(Cl)c(OC)cc(OC)c2C3=O
p2115
(lp2116
F1.0
aF352.77
aF0.0
aF3.0
aF3.0
aF71.06
asVCCCCCCCCCCO
p2117
(lp2118
F1.0
aF158.285
aF1.0
aF0.0
aF8.0
aF20.23
asVCCC(C)(C)CC
p2119
(lp2120
F1.0
aF100.205
aF0.0
aF0.0
aF2.0
aF0.0
asVCNC(=O)C(C)SCCSP(=O)(OC)(OC)
p2121
(lp2122
F1.0
aF287.343
aF1.0
aF0.0
aF8.0
aF64.63
asVOc1cc(Cl)c(Cl)c(Cl)c1Cl
p2123
(lp2124
F1.0
aF231.893
aF1.0
aF1.0
aF0.0
aF20.23
asVCCCC=O
p2125
(lp2126
F1.0
aF72.107
aF0.0
aF0.0
aF2.0
aF17.07
asVCC4CC3C2CCC1=CC(=O)C=CC1(C)C2(F)C(O)CC3(C)C4(O)C(=O)COC(C)=O
p2127
(lp2128
F1.0
aF434.504
aF2.0
aF4.0
aF3.0
aF100.9
asVCCCC
p2129
(lp2130
F1.0
aF58.124
aF0.0
aF0.0
aF1.0
aF0.0
asVCC1CC2C3CCC(O)(C(=O)C)C3(C)CC(O)C2(F)C4(C)C=CC(=O)C=C14
p2131
(lp2132
F1.0
aF376.468
aF2.0
aF4.0
aF1.0
aF74.6
asVClC(Cl)C(Cl)(Cl)Cl
p2133
(lp2134
F1.0
aF202.295
aF0.0
aF0.0
aF0.0
aF0.0
asVCCOC(=O)c1ccccc1C(=O)OCC
p2135
(lp2136
F1.0
aF222.24
aF0.0
aF1.0
aF4.0
aF52.6
asVCC(C)CO
p2137
(lp2138
F1.0
aF74.123
aF1.0
aF0.0
aF1.0
aF20.23
asVCC(C)Cc1ccccc1
p2139
(lp2140
F1.0
aF134.222
aF0.0
aF1.0
aF2.0
aF0.0
asVICI
p2141
(lp2142
F1.0
aF267.835
aF0.0
aF0.0
aF0.0
aF0.0
asVCCCC(O)CCC
p2143
(lp2144
F1.0
aF116.204
aF1.0
aF0.0
aF4.0
aF20.23
asVCCCCCOC(=O)C
p2145
(lp2146
F1.0
aF130.187
aF0.0
aF0.0
aF4.0
aF26.3
asVOc1c(Cl)c(Cl)cc(Cl)c1Cl
p2147
(lp2148
F1.0
aF231.893
aF1.0
aF1.0
aF0.0
aF20.23
asVCCCc1ccccc1
p2149
(lp2150
F1.0
aF120.195
aF0.0
aF1.0
aF2.0
aF0.0
asVFC(F)(Cl)C(F)(F)Cl
p2151
(lp2152
F1.0
aF170.92
aF0.0
aF0.0
aF1.0
aF0.0
asVCC=CC=O
p2153
(lp2154
F1.0
aF70.091
aF0.0
aF0.0
aF1.0
aF17.07
asVCN(C)C(=O)N(C)C
p2155
(lp2156
F1.0
aF116.164
aF0.0
aF0.0
aF0.0
aF23.55
asVCc1cc(C)c(C)cc1C
p2157
(lp2158
F1.0
aF134.222
aF0.0
aF1.0
aF0.0
aF0.0
asVCC(=O)OC3(CCC4C2CCC1=CC(=O)CCC1C2CCC34C)C#C
p2159
(lp2160
F1.0
aF340.463
aF0.0
aF4.0
aF1.0
aF43.37
asVCCOP(=S)(OCC)N2C(=O)c1ccccc1C2=O
p2161
(lp2162
F1.0
aF299.288
aF0.0
aF2.0
aF5.0
aF55.84
asVc1ccccc1NC(=O)c2c(O)cccc2
p2163
(lp2164
F1.0
aF213.236
aF2.0
aF2.0
aF2.0
aF49.33
asVCCN(CC)C(=S)SCC(Cl)=C
p2165
(lp2166
F1.0
aF223.794
aF0.0
aF0.0
aF4.0
aF3.24
asVClCC
p2167
(lp2168
F1.0
aF64.515
aF0.0
aF0.0
aF0.0
aF0.0
asVCC(=O)Nc1cc(NS(=O)(=O)C(F)(F)F)c(C)cc1C
p2169
(lp2170
F1.0
aF310.297
aF2.0
aF1.0
aF3.0
aF75.27
asVO=C(C=CC=Cc2ccc1OCOc1c2)N3CCCCC3
p2171
(lp2172
F1.0
aF285.343
aF0.0
aF3.0
aF3.0
aF38.77
asVCC/C=C\u005cC
p2173
(lp2174
F1.0
aF70.135
aF0.0
aF0.0
aF1.0
aF0.0
asVCNC(=O)ON=C(CSC)C(C)(C)C
p2175
(lp2176
F1.0
aF218.322
aF1.0
aF0.0
aF3.0
aF50.69
asVO=C2NC(=O)C1(CCCCCCC1)C(=O)N2
p2177
(lp2178
F1.0
aF224.26
aF2.0
aF2.0
aF0.0
aF75.27
asVc1(C(C)(C)C)cc(C(C)(C)C)cc(OC(=O)NC)c1
p2179
(lp2180
F1.0
aF263.381
aF1.0
aF1.0
aF1.0
aF38.33
asVOc2cc(O)c1C(=O)CC(Oc1c2)c3ccc(O)c(O)c3
p2181
(lp2182
F1.0
aF288.255
aF4.0
aF3.0
aF1.0
aF107.22
asVO=C(c1ccccc1)c2ccccc2
p2183
(lp2184
F1.0
aF182.222
aF0.0
aF2.0
aF2.0
aF17.07
asVCCCCCCCCCCCCCCCCCCCC
p2185
(lp2186
F1.0
aF282.556
aF0.0
aF0.0
aF17.0
aF0.0
asVN(Nc1ccccc1)c2ccccc2
p2187
(lp2188
F2.0
aF184.242
aF2.0
aF2.0
aF3.0
aF24.06
asVCCC(CC)CO
p2189
(lp2190
F1.0
aF102.177
aF1.0
aF0.0
aF3.0
aF20.23
asVOc1ccncc1
p2191
(lp2192
F1.0
aF95.101
aF1.0
aF1.0
aF0.0
aF33.12
asVCl\u005cC=C/Cl
p2193
(lp2194
F1.0
aF96.944
aF0.0
aF0.0
aF0.0
aF0.0
asVCC1CCCC1
p2195
(lp2196
F1.0
aF84.162
aF0.0
aF1.0
aF0.0
aF0.0
asVCC(C)CC(C)O
p2197
(lp2198
F1.0
aF102.177
aF1.0
aF0.0
aF2.0
aF20.23
asVO2c1ccc(N)cc1N(C)C(=O)c3cc(C)ccc23
p2199
(lp2200
F1.0
aF254.289
aF1.0
aF3.0
aF0.0
aF55.56
asVCC(C)(C)CO
p2201
(lp2202
F1.0
aF88.15
aF1.0
aF0.0
aF0.0
aF20.23
asVCC(C)(C)C(=O)C(Oc1ccc(Cl)cc1)n2cncn2
p2203
(lp2204
F1.0
aF293.754
aF0.0
aF2.0
aF4.0
aF57.01
asVCc1cc(no1)C(=O)NNCc2ccccc2
p2205
(lp2206
F1.0
aF231.255
aF2.0
aF2.0
aF4.0
aF67.16
asVCC=C
p2207
(lp2208
F1.0
aF42.081
aF0.0
aF0.0
aF0.0
aF0.0
asVOc1ccc(Cl)cc1Cc2cc(Cl)ccc2O
p2209
(lp2210
F1.0
aF269.127
aF2.0
aF2.0
aF2.0
aF40.46
asVCCOC(=O)Nc2cccc(OC(=O)Nc1ccccc1)c2
p2211
(lp2212
F1.0
aF300.314
aF2.0
aF2.0
aF4.0
aF76.66
asVO=C1c2ccccc2C(=O)c3ccccc13
p2213
(lp2214
F1.0
aF208.216
aF0.0
aF3.0
aF0.0
aF34.14
asVCCCCCCC(C)O
p2215
(lp2216
F1.0
aF130.231
aF1.0
aF0.0
aF5.0
aF20.23
asVCC1=C(C(=O)Nc2ccccc2)S(=O)(=O)CCO1
p2217
(lp2218
F1.0
aF267.306
aF1.0
aF2.0
aF2.0
aF72.47
asVCCCCc1ccccc1
p2219
(lp2220
F1.0
aF134.222
aF0.0
aF1.0
aF3.0
aF0.0
asVO=C1NC(=O)C(=O)N1
p2221
(lp2222
F1.0
aF114.06
aF2.0
aF1.0
aF0.0
aF75.27
asVCOP(=S)(OC)Oc1ccc(Sc2ccc(OP(=S)(OC)OC)cc2)cc1
p2223
(lp2224
F1.0
aF466.479
aF0.0
aF2.0
aF10.0
aF55.38
asVNS(=O)(=O)c1cc(ccc1Cl)C2(O)NC(=O)c3ccccc23
p2225
(lp2226
F1.0
aF338.772
aF3.0
aF3.0
aF2.0
aF109.49
asVCC(C)COC(=O)C
p2227
(lp2228
F1.0
aF116.16
aF0.0
aF0.0
aF2.0
aF26.3
asVCC(C)C(C)(C)C
p2229
(lp2230
F1.0
aF100.205
aF0.0
aF0.0
aF0.0
aF0.0
asVClc1ccc(c(Cl)c1Cl)c2c(Cl)cc(Cl)c(Cl)c2Cl
p2231
(lp2232
F1.0
aF395.327
aF0.0
aF2.0
aF1.0
aF0.0
asVN#Cc1ccccc1C#N
p2233
(lp2234
F1.0
aF128.134
aF0.0
aF1.0
aF0.0
aF47.58
asVCc1cccc(c1)N(=O)=O
p2235
(lp2236
F1.0
aF137.138
aF0.0
aF1.0
aF1.0
aF43.14
asVFC(F)(F)C(Cl)Br
p2237
(lp2238
F1.0
aF197.381
aF0.0
aF0.0
aF0.0
aF0.0
asVCNC(=O)ON=C(SC)C(=O)N(C)C
p2239
(lp2240
F1.0
aF219.266
aF1.0
aF0.0
aF1.0
aF71.0
asVCCSCCSP(=S)(OC)OC
p2241
(lp2242
F1.0
aF246.359
aF0.0
aF0.0
aF7.0
aF18.46
asVCCC(C)C
p2243
(lp2244
F1.0
aF72.151
aF0.0
aF0.0
aF1.0
aF0.0
asVCOP(=O)(OC)OC(=CCl)c1cc(Cl)c(Cl)cc1Cl
p2245
(lp2246
F1.0
aF365.964
aF0.0
aF1.0
aF5.0
aF44.76
as.