(dp0
VOCC3OC(OCC2OC(OC(C#N)c1ccccc1)C(O)C(O)C2O)C(O)C(O)C3O
p1
V-0.77
p2
sVCc1occc1C(=O)Nc2ccccc2
p3
V-3.3
p4
sVCC(C)=CCCC(C)=CC(=O)
p5
V-2.06
p6
sVc1ccc2c(c1)ccc3c2ccc4c5ccccc5ccc43
p7
V-7.87
p8
sVc1ccsc1
p9
V-1.33
p10
sVc2ccc1scnc1c2
p11
V-1.5
p12
sVClc1cc(Cl)c(c(Cl)c1)c2c(Cl)cccc2Cl
p13
V-7.32
p14
sVCC12CCC3C(CCc4cc(O)ccc34)C2CCC1O
p15
V-5.03
p16
sVClC4=C(Cl)C5(Cl)C3C1CC(C2OC12)C3C4(Cl)C5(Cl)Cl
p17
V-6.29
p18
sVCOc5cc4OCC3Oc2c1CC(Oc1ccc2C(=O)C3c4cc5OC)C(C)=C
p19
V-4.42
p20
sVO=C1CCCN1
p21
V1.07
p22
sVClc1ccc2ccccc2c1
p23
V-4.14
p24
sVCCCC=C
p25
V-2.68
p26
sVCCC1(C(=O)NCNC1=O)c2ccccc2
p27
V-2.64
p28
sVCCCCCCCCCCCCCC
p29
V-7.96
p30
sVCC(C)Cl
p31
V-1.41
p32
sVCCC(C)CO
p33
V-0.47
p34
sVN#Cc1ccccc1
p35
V-1
p36
sVCCOP(=S)(OCC)Oc1cc(C)nc(n1)C(C)C
p37
V-3.64
p38
sVCCCCCCCCCC(C)O
p39
V-2.94
p40
sVClc1ccc(c(Cl)c1)c2c(Cl)ccc(Cl)c2Cl
p41
V-7.43
p42
sVO=c2[nH]c1CCCc1c(=O)n2C3CCCCC3
p43
V-4.594
p44
sVCCOP(=S)(OCC)SCSCC
p45
V-4.11
p46
sVCCOc1ccc(NC(=O)C)cc1
p47
V-2.35
p48
sVCCN(CC)c1c(cc(c(N)c1N(=O)=O)C(F)(F)F)N(=O)=O
p49
V-5.47
p50
sVCCCCCCCO
p51
V-1.81
p52
sVCn1c(=O)n(C)c2nc[nH]c2c1=O
p53
V-1.39
p54
sVCCCCC1(CC)C(=O)NC(=O)NC1=O
p55
V-1.661
p56
sVClC(Cl)=C(c1ccc(Cl)cc1)c2ccc(Cl)cc2
p57
V-6.9
p58
sVCCCCCCCC(=O)OC
p59
V-3.17
p60
sVCCc1ccc(CC)cc1
p61
V-3.75
p62
sVCCOP(=S)(OCC)SCSC(C)(C)C
p63
V-4.755
p64
sVCOC(=O)Nc1cccc(OC(=O)Nc2cccc(C)c2)c1
p65
V-4.805
p66
sVClC(=C)Cl
p67
V-1.64
p68
sVCc1cccc2c1Cc3ccccc32
p69
V-5.22
p70
sVCCCCC=O
p71
V-0.85
p72
sVN(c1ccccc1)c2ccccc2
p73
V-3.504
p74
sVCN(C)C(=O)SCCCCOc1ccccc1
p75
V-3.927
p76
sVCCCOP(=S)(OCCC)SCC(=O)N1CCCCC1C
p77
V-4.15
p78
sVCCCCCCCI
p79
V-4.81
p80
sVc1c(Cl)cccc1c2ccccc2
p81
V-4.88
p82
sVOCCCC=C
p83
V-0.15
p84
sVO=C2NC(=O)C1(CCC1)C(=O)N2
p85
V-1.655
p86
sVCC(C)C1CCC(C)CC1O
p87
V-2.53
p88
sVCC(C)OC=O
p89
V-0.63
p90
sVCCCCCC(C)O
p91
V-1.55
p92
sVCC(=O)Nc1ccc(Br)cc1
p93
V-3.083
p94
sVc1ccccc1n2ncc(N)c(Br)c2(=O)
p95
V-3.127
p96
sVCOC(=O)C1=C(C)NC(=C(C1c2ccccc2N(=O)=O)C(=O)OC)C
p97
V-4.76
p98
sVc2c(C)cc1nc(C)ccc1c2
p99
V-1.94
p100
sVCCCCCCC#C
p101
V-3.66
p102
sVCCC1(C(=O)NC(=O)NC1=O)C2=CCCCC2
p103
V-2.17
p104
sVc1ccc2c(c1)ccc3c4ccccc4ccc23
p105
V-8.057
p106
sVCCC(C)n1c(=O)[nH]c(C)c(Br)c1=O
p107
V-2.523
p108
sVClc1cccc(c1Cl)c2c(Cl)c(Cl)cc(Cl)c2Cl
p109
V-8.6
p110
sVCc1ccccc1O
p111
V-0.62
p112
sVCC(C)CCC(C)(C)C
p113
V-5.05
p114
sVCc1ccc(C)c2ccccc12
p115
V-4.14
p116
sVCc1cc2c3ccccc3ccc2c4ccccc14
p117
V-6.57
p118
sVCCCC(=O)C
p119
V-0.19
p120
sVClc1cc(Cl)c(Cl)c(c1Cl)c2c(Cl)c(Cl)cc(Cl)c2Cl
p121
V-9.15
p122
sVCCCOC(=O)CC
p123
V-0.82
p124
sVCC34CC(O)C1(F)C(CCC2=CC(=O)C=CC12C)C3CC(O)C4(O)C(=O)CO
p125
V-3.68
p126
sVNc1ccc(O)cc1
p127
V-0.8
p128
sVO=C(Cn1ccnc1N(=O)=O)NCc2ccccc2
p129
V-2.81
p130
sVOC4=C(C1CCC(CC1)c2ccc(Cl)cc2)C(=O)c3ccccc3C4=O
p131
V-5.931
p132
sVCCNc1nc(Cl)nc(n1)N(CC)CC
p133
V-4.06
p134
sVNC(=O)c1cnccn1
p135
V-0.667
p136
sVCCC(Br)(CC)C(=O)NC(N)=O
p137
V-2.68
p138
sVClc1ccccc1c2ccccc2Cl
p139
V-5.27
p140
sVO=C2CN(N=Cc1ccc(o1)N(=O)=O)C(=O)N2
p141
V-3.38
p142
sVClc2ccc(Oc1ccc(cc1)N(=O)=O)c(Cl)c2
p143
V-5.46
p144
sVCC1(C)C2CCC1(C)C(=O)C2
p145
V-1.96
p146
sVO=C1NC(=O)NC(=O)C1(CC=C)c1ccccc1
p147
V-2.369
p148
sVCCCCC(=O)OCC
p149
V-2.25
p150
sVCC(C)CCOC(=O)C
p151
V-1.92
p152
sVO=C1N(COC(=O)CCCCC)C(=O)C(N1)(c2ccccc2)c3ccccc3
p153
V-5.886
p154
sVClc1cccc(c1)c2cc(Cl)ccc2Cl
p155
V-6.01
p156
sVCCCBr
p157
V-1.73
p158
sVCCCC1COC(Cn2cncn2)(O1)c3ccc(Cl)cc3Cl
p159
V-3.493
p160
sVCOP(=S)(OC)SCC(=O)N(C)C=O
p161
V-1.995
p162
sVCc1ncnc2nccnc12
p163
V-0.466
p164
sVNC(=S)N
p165
V0.32
p166
sVCc1ccc(C)cc1
p167
V-2.77
p168
sVCCc1ccccc1CC
p169
V-3.28
p170
sVClC(Cl)(Cl)C(Cl)(Cl)Cl
p171
V-3.67
p172
sVCC(C)C(C(=O)OC(C#N)c1cccc(Oc2ccccc2)c1)c3ccc(OC(F)F)cc3
p173
V-6.876
p174
sVCCCN(=O)=O
p175
V-0.8
p176
sVCC(C)C1CCC(C)CC1=O
p177
V-2.35
p178
sVCCN2c1cc(Cl)ccc1NC(=O)c3cccnc23
p179
V-5.36
p180
sVO=N(=O)c1c(Cl)c(Cl)ccc1
p181
V-3.48
p182
sVCCCC(C)C1(CC=C)C(=O)NC(=S)NC1=O
p183
V-3.46
p184
sVc1ccc2c(c1)c3cccc4cccc2c34
p185
V-6
p186
sVCCCOC(C)C
p187
V-1.34
p188
sVCc1cc(C)c2ccccc2c1
p189
V-4.29
p190
sVCCC(=C(CC)c1ccc(O)cc1)c2ccc(O)cc2
p191
V-4.07
p192
sVc1(C#N)c(Cl)c(C#N)c(Cl)c(Cl)c(Cl)1
p193
V-5.64
p194
sVClc1ccc(Cl)c(c1)c2ccc(Cl)c(Cl)c2
p195
V-7.25
p196
sVC1OC1c2ccccc2
p197
V-1.6
p198
sVCC(C)c1ccccc1
p199
V-3.27
p200
sVCC12CCC3C(CCC4=CC(=O)CCC34C)C2CCC1C(=O)CO
p201
V-3.45
p202
sVc2(Cl)c(Cl)c(Cl)c1nccnc1c2(Cl)
p203
V-5.43
p204
sVC1OC(O)C(O)C(O)C1O
p205
V0.39
p206
sVClCCl
p207
V-0.63
p208
sVCCc1cccc2ccccc12
p209
V-4.17
p210
sVCOC=O
p211
V0.58
p212
sVOc1ccccc1N(=O)=O
p213
V-1.74
p214
sVCc1c[nH]c(=O)[nH]c1=O
p215
V-1.506
p216
sVCC(C)C
p217
V-2.55
p218
sVOCC1OC(C(O)C1O)n2cnc3c(O)ncnc23
p219
V-1.23
p220
sVOc1c(I)cc(C#N)cc1I
p221
V-3.61
p222
sVOc1ccc(Cl)cc1C(=O)Nc2ccc(cc2Cl)N(=O)=O
p223
V-4.7
p224
sVCCCCC
p225
V-3.18
p226
sVc1ccccc1O
p227
V0
p228
sVNc3ccc2cc1ccccc1cc2c3
p229
V-5.17
p230
sVCn1cnc2n(C)c(=O)[nH]c(=O)c12
p231
V-2.523
p232
sVc1ccc2cnccc2c1
p233
V-1.45
p234
sVCOP(=S)(OC)SCC(=O)N(C(C)C)c1ccc(Cl)cc1
p235
V-4.432
p236
sVCCCCCCc1ccccc1
p237
V-5.21
p238
sVClc1ccccc1c2ccccc2
p239
V-4.54
p240
sVCCCC(=C)C
p241
V-3.03
p242
sVCC(C)C(C)C(C)C
p243
V-4.8
p244
sVClc1cc(Cl)c(Cl)c(Cl)c1Cl
p245
V-5.65
p246
sVOc1cccc(c1)N(=O)=O
p247
V-1.01
p248
sVCCCCCCCCC=C
p249
V-5.51
p250
sVCC(=O)OCC(COC(=O)C)OC(=O)C
p251
V-0.6
p252
sVCCCCc1c(C)nc(nc1O)N(C)C
p253
V-2.24
p254
sVCC1(C)C(C=C(Cl)Cl)C1C(=O)OC(C#N)c2ccc(F)c(Oc3ccccc3)c2
p255
V-7.337
p256
sVc1ccncc1
p257
V0.76
p258
sVCCCCCCCBr
p259
V-4.43
p260
sVCc1ccncc1C
p261
V0.36
p262
sVCC34CC(O)C1(F)C(CCC2=CC(=O)CCC12C)C3CCC4(O)C(=O)CO
p263
V-3.43
p264
sVCCSCc1ccccc1OC(=O)NC
p265
V-2.09
p266
sVCCOC(=O)CC(=O)OCC
p267
V-0.82
p268
sVCC1=CCC(CC1)C(C)=C
p269
V-4.26
p270
sVC1Cc2ccccc2C1
p271
V-3.04
p272
sVCC(C)(C)c1ccc(O)cc1
p273
V-2.41
p274
sVO=C2NC(=O)C1(CC1)C(=O)N2
p275
V-1.886
p276
sVClc1cccc(I)c1
p277
V-3.55
p278
sVBrc1cccc2ccccc12
p279
V-4.35
p280
sVCC/C=C/C
p281
V-2.54
p282
sVCc1cccc(C)n1
p283
V0.45
p284
sVClC=C(Cl)Cl
p285
V-1.96
p286
sVNc1cccc2ccccc12
p287
V-1.92
p288
sVCc1cccc(C)c1
p289
V-2.82
p290
sVOc2ncc1nccnc1n2
p291
V-1.947
p292
sVCO
p293
V1.57
p294
sVCCC1(CCC(C)C)C(=O)NC(=O)NC1=O
p295
V-2.468
p296
sVCCC(=O)C
p297
V0.52
p298
sVFc1c[nH]c(=O)[nH]c1=O
p299
V-1.077
p300
sVNc1ncnc2n(ccc12)C3OC(CO)C(O)C3O
p301
V-1.95
p302
sVOc1cccc(O)c1
p303
V0.81
p304
sVCCCCCCO
p305
V-1.24
p306
sVCCCCCCl
p307
V-2.73
p308
sVC=CC=C
p309
V-1.87
p310
sVCCCOC(=O)C
p311
V-0.72
p312
sVOc2ccc1CCCCc1c2
p313
V-1.99
p314
sVNC(=O)CCl
p315
V-0.02
p316
sVCOP(=S)(OC)Oc1cc(Cl)c(I)cc1Cl
p317
V-6.62
p318
sVCc1ccc(Cl)cc1
p319
V-3.08
p320
sVCSc1nnc(c(=O)n1N)C(C)(C)C
p321
V-2.253
p322
sVCc1ccc(OP(=O)(Oc2cccc(C)c2)Oc3ccccc3C)cc1
p323
V-6.01
p324
sVCCCCCC=O
p325
V-1.3
p326
sVCCCCOC(=O)c1ccc(N)cc1
p327
V-3.082
p328
sVO2c1cc(C)ccc1N(C)C(=O)c3cc(N)cnc23
p329
V-3.043
p330
sVCC(C)=CCC/C(C)=C\u005cCO
p331
V-2.46
p332
sVClc1ccc(cc1)c2ccccc2Cl
p333
V-5.28
p334
sVO=C1N(COC(=O)CCCCCCC)C(=O)C(N1)(c2ccccc2)c3ccccc3
p335
V-6.523
p336
sVCCN(=O)=O
p337
V-0.22
p338
sVCCN(CC(C)=C)c1c(cc(cc1N(=O)=O)C(F)(F)F)N(=O)=O
p339
V-6.124
p340
sVClc1ccc(Cl)c(Cl)c1Cl
p341
V-4.57
p342
sVCCCC(C)(COC(N)=O)COC(N)=O
p343
V-1.807
p344
sVCC(=O)C3CCC4C2CC=C1CC(O)CCC1(C)C2CCC34C
p345
V-4.65
p346
sVCI
p347
V-1
p348
sVCC1CC(C)C(=O)C(C1)C(O)CC2CC(=O)NC(=O)C2
p349
V-1.13
p350
sVO=C1N(COC(=O)CCCCCC)C(=O)C(N1)(c2ccccc2)c3ccccc3
p351
V-6.301
p352
sVCC1=CC(=O)CC(C)(C)C1
p353
V-1.06
p354
sVO=C1NC(=O)NC(=O)C1(CC)C(C)CC
p355
V-2.39
p356
sVCCCCC(=O)CCCC
p357
V-2.58
p358
sVCCC1(CCC(=O)NC1=O)c2ccccc2
p359
V-2.337
p360
sVCCC(C)CC
p361
V-3.68
p362
sVCCOc1ccc(cc1)C(C)(C)COCc3cccc(Oc2ccccc2)c3
p363
V-8.6
p364
sVCc1ccccc1n3c(C)nc2ccccc2c3=O
p365
V-2.925
p366
sVClCC#N
p367
V-0.092
p368
sVCCOP(=S)(CC)Oc1cc(Cl)c(Cl)cc1Cl
p369
V-5.752
p370
sVCC12CCC(=O)C=C1CCC3C2CCC4(C)C3CCC4(O)C#C
p371
V-5.66
p372
sVc1ccnnc1
p373
V1.1
p374
sVClc1cc(Cl)c(Cl)c(Cl)c1
p375
V-4.63
p376
sVC1C(O)CCC2(C)CC3CCC4(C)C5(C)CC6OCC(C)CC6OC5CC4C3C=C21
p377
V-7.32
p378
sVNc1ccccc1O
p379
V-0.72
p380
sVCCCCCCCCC(=O)OCC
p381
V-3.8
p382
sVCOCC(=O)N(C(C)C(=O)OC)c1c(C)cccc1C
p383
V-1.601
p384
sVCNC(=O)Oc1ccccc1OC(C)C
p385
V-2.05
p386
sVCCC(C)Cl
p387
V-1.96
p388
sVOc1ccc2ccccc2c1
p389
V-2.28
p390
sVCC(C)Oc1cc(c(Cl)cc1Cl)n2nc(oc2=O)C(C)(C)C
p391
V-5.696
p392
sVCCCCC#C
p393
V-2.36
p394
sVCCCCCCCC#C
p395
V-4.24
p396
sVCc1ccccc1Cl
p397
V-3.52
p398
sVCC(C)OC(C)C
p399
V-1.1
p400
sVNc1ccc(cc1)S(=O)(=O)c2ccc(N)cc2
p401
V-3.094
p402
sVCNN
p403
V1.34
p404
sVCC#C
p405
V-0.41
p406
sVCCOP(=S)(OCC)ON=C(C#N)c1ccccc1
p407
V-4.862
p408
sVCCNP(=S)(OC)OC(=CC(=O)OC(C)C)C
p409
V-3.408
p410
sVC=CC=O
p411
V0.57
p412
sVO=c1[nH]cnc2nc[nH]c12
p413
V-2.296
p414
sVOc2ccc1ncccc1c2
p415
V-2.16
p416
sVFc1ccccc1
p417
V-1.8
p418
sVCCCCl
p419
V-1.47
p420
sVCCOC(=O)C
p421
V-0.04
p422
sVCCCC(C)(C)C
p423
V-4.36
p424
sVCc1cc(C)c(C)c(C)c1C
p425
V-4
p426
sVCC12CCC(CC1)C(C)(C)O2
p427
V-1.74
p428
sVCCCCOC(=O)CCCCCCCCC(=O)OCCCC
p429
V-3.896
p430
sVClc1ccc(cc1)c2ccc(Cl)cc2
p431
V-6.56
p432
sVCc1cccnc1C
p433
V0.38
p434
sVCC(=C)C1CC=C(C)C(=O)C1
p435
V-2.06
p436
sVCCOP(=S)(OCC)SCSc1ccc(Cl)cc1
p437
V-5.736
p438
sVCOc1cc(cc(OC)c1O)C6C2C(COC2=O)C(OC4OC3COC(C)OC3C(O)C4O)c7cc5OCOc5cc67
p439
V-3.571
p440
sVc1cc2cccc3c4cccc5cccc(c(c1)c23)c54
p441
V-8.804
p442
sVCc1ccc(cc1N(=O)=O)N(=O)=O
p443
V-2.82
p444
sVc1c(Br)ccc2ccccc12
p445
V-4.4
p446
sVCNC(=O)Oc1cccc(N=CN(C)C)c1
p447
V-2.34
p448
sVCOc2cnc1ncncc1n2
p449
V-1.139
p450
sVCc3ccnc4N(C1CC1)c2ncccc2C(=O)Nc34
p451
V-3.19
p452
sVCCOP(=S)(OCC)Oc1nc(Cl)n(n1)C(C)C
p453
V-3.658
p454
sVCC(=C)C=C
p455
V-2.03
p456
sVCC(C)=CCCC(O)(C)C=C
p457
V-1.99
p458
sVCOP(=S)(OC)Oc1ccc(SC)c(C)c1
p459
V-4.57
p460
sVOC1CCCCC1
p461
V-0.44
p462
sVO=C1NC(=O)NC(=O)C1(C)CC=C
p463
V-1.16
p464
sVCC34CCC1C(CCC2CC(O)CCC12C)C3CCC4=O
p465
V-4.16
p466
sVOCC(O)C(O)C(O)C(O)CO
p467
V1.09
p468
sVCc1ccc(cc1)c2ccccc2
p469
V-4.62
p470
sVCCNc1nc(Cl)nc(NC(C)C)n1
p471
V-3.85
p472
sVNC(=S)Nc1ccccc1
p473
V-1.77
p474
sVCCCC(=O)CCC
p475
V-1.3
p476
sVCC(=O)C(C)(C)C
p477
V-0.72
p478
sVOc1ccc(Cl)cc1
p479
V-0.7
p480
sVO=C1CCCCC1
p481
V-0.6
p482
sVCc1cccc(N)c1
p483
V-0.85
p484
sVClC(Cl)(Cl)C#N
p485
V-2.168
p486
sVCNc2cnn(c1cccc(c1)C(F)(F)F)c(=O)c2Cl
p487
V-4.046
p488
sVCCCCCCCCC(=O)C
p489
V-3.3
p490
sVCCN(CC)c1nc(Cl)nc(NC(C)C)n1
p491
V-3.785
p492
sVCCOC(=O)c1ccc(N)cc1
p493
V-2.616
p494
sVClc1ccc(Cl)c(Cl)c1
p495
V-3.59
p496
sVCc3nnc4CN=C(c1ccccc1Cl)c2cc(Cl)ccc2n34
p497
V-4.09
p498
sVOc1ccccc1O
p499
V0.62
p500
sVCCN2c1ncccc1N(C)C(=O)c3cccnc23
p501
V-2.62
p502
sVCSC
p503
V-0.45
p504
sVCc1ccccc1Br
p505
V-2.23
p506
sVCCOC(=O)N
p507
V0.85
p508
sVCC(=O)OC3(CCC4C2C=C(C)C1=CC(=O)CCC1(C)C2CCC34C)C(C)=O
p509
V-5.35
p510
sVCC(C)C(O)C(C)C
p511
V-1.22
p512
sVc1ccc2ccccc2c1
p513
V-3.6
p514
sVCCNc1ccccc1
p515
V-1.7
p516
sVO=C1NC(=O)C(N1)(c2ccccc2)c3ccccc3
p517
V-4.097
p518
sVCc1c2ccccc2c(C)c3ccc4ccccc4c13
p519
V-7.02
p520
sVCCOP(=S)(OCC)SC(CCl)N1C(=O)c2ccccc2C1=O
p521
V-6.34
p522
sVCOc1ccc(cc1)C(c2ccc(OC)cc2)C(Cl)(Cl)Cl
p523
V-6.89
p524
sVFc1cccc(F)c1C(=O)NC(=O)Nc2cc(Cl)c(F)c(Cl)c2F
p525
V-7.28
p526
sVO=C1N(COC(=O)CCCC)C(=O)C(N1)(c2ccccc2)c3ccccc3
p527
V-4.678
p528
sVCN(C)C(=O)Nc1ccc(Cl)cc1
p529
V-2.89
p530
sVOC(Cn1cncn1)(c2ccc(F)cc2)c3ccccc3F
p531
V-3.37
p532
sVCC(=O)OCC(=O)C3(O)C(CC4C2CCC1=CC(=O)C=CC1(C)C2(F)C(O)CC34C)OC(C)=O
p533
V-4.13
p534
sVCCCCBr
p535
V-2.37
p536
sVBrc1cc(Br)c(Br)cc1Br
p537
V-6.98
p538
sVCC(C)CC(=O)C
p539
V-0.74
p540
sVCCSC(=O)N(CC)C1CCCCC1
p541
V-3.4
p542
sVCOc1ccc(Cl)cc1
p543
V-2.78
p544
sVCC1(C)C(C=C(Br)Br)C1C(=O)OC(C#N)c2cccc(Oc3ccccc3)c2
p545
V-8.402
p546
sVCCC(C)C1(CC=C)C(=O)NC(=O)NC1=O
p547
V-2.016
p548
sVCOP(=S)(OC)Oc1ccc(N(=O)=O)c(C)c1
p549
V-4.04
p550
sVIc1cccc2ccccc12
p551
V-4.55
p552
sVCCS
p553
V-0.6
p554
sVClCC(Cl)Cl
p555
V-1.48
p556
sVCN(C)C(=O)Oc1cc(C)nn1c2ccccc2
p557
V-2.09
p558
sVNC(=O)c1ccccc1O
p559
V-1.82
p560
sVCc1ccccc1N(=O)=O
p561
V-2.33
p562
sVO=C1NC(=O)NC(=O)C1(C(C)C)C(C)C
p563
V-2.766
p564
sVCCc1ccccc1C
p565
V-3.21
p566
sVCCCCCCCCl
p567
V-4
p568
sVO=C1NC(=O)NC(=O)C1(CC)CC
p569
V-2.4
p570
sVC(Cc1ccccc1)c2ccccc2
p571
V-4.62
p572
sVClC(Cl)C(Cl)Cl
p573
V-1.74
p574
sVCCN2c1cc(OC)cc(C)c1NC(=O)c3cccnc23
p575
V-5.153
p576
sVCc1ccc2c(ccc3ccccc32)c1
p577
V-5.84
p578
sVCCCCOC(=O)c1ccccc1C(=O)OCCCC
p579
V-4.4
p580
sVCOc1c(O)c(Cl)c(Cl)c(Cl)c1Cl
p581
V-4.02
p582
sVCCN(CC)C(=O)C(=CCOP(=O)(OC)OC)Cl
p583
V0.523
p584
sVCC34CCC1C(=CCc2cc(O)ccc12)C3CCC4=O
p585
V-5.282
p586
sVCCOC(=O)c1ccccc1S(=O)(=O)NN(C=O)c2nc(Cl)cc(OC)n2
p587
V-4.576
p588
sVCOc1ccc(cc1)N(=O)=O
p589
V-2.41
p590
sVCCCCCCCl
p591
V-3.12
p592
sVClc1cc(c(Cl)c(Cl)c1Cl)c2cc(Cl)c(Cl)c(Cl)c2Cl
p593
V-9.16
p594
sVOCC1OC(CO)(OC2OC(COC3OC(CO)C(O)C(O)C3O)C(O)C(O)C2O)C(O)C1O
p595
V-0.41
p596
sVCCCCCCCCCCCCCCCCCCCCCCCCCC
p597
V-8.334
p598
sVCCN2c1ccccc1N(C)C(=O)c3cccnc23
p599
V-3.324
p600
sVCC(Cl)Cl
p601
V-1.29
p602
sVNc1ccc(cc1)S(N)(=O)=O
p603
V-1.34
p604
sVCCCN(CCC)c1c(cc(cc1N(=O)=O)C(C)C)N(=O)=O
p605
V-6.49
p606
sVClC1C(Cl)C(Cl)C(Cl)C(Cl)C1Cl
p607
V-4.64
p608
sVCCOP(=S)(NC(C)C)Oc1ccccc1C(=O)OC(C)C
p609
V-4.194
p610
sVClc1cccc(Cl)c1Cl
p611
V-4
p612
sVClC(Cl)(Cl)Cl
p613
V-2.31
p614
sVO=N(=O)c1cc(Cl)c(Cl)cc1
p615
V-3.2
p616
sVOC1CCCCCCC1
p617
V-1.29
p618
sVCC1(O)CCC2C3CCC4=CC(=O)CCC4(C)C3CCC21C
p619
V-3.999
p620
sVCCOc1ccc(NC(N)=O)cc1
p621
V-2.17
p622
sVC/C1CCC(\u005cC)CC1
p623
V-4.47
p624
sVc1cnc2c(c1)ccc3ncccc23
p625
V-2.68
p626
sVCOC(C)(C)C
p627
V-0.24
p628
sVCOc1ccc(C=CC)cc1
p629
V-3.13
p630
sVCCCCCCCCCCCCCCCCO
p631
V-7
p632
sVO=c1cc[nH]c(=O)[nH]1
p633
V-1.488
p634
sVNc1ncnc2nc[nH]c12
p635
V-2.12
p636
sVClc1cc(Cl)c(cc1Cl)c2cccc(Cl)c2Cl
p637
V-7.21
p638
sVCOc1ccc(cc1)C(O)(C2CC2)c3cncnc3
p639
V-2.596
p640
sVc1ccc2c(c1)c3cccc4c3c2cc5ccccc54
p641
V-8.23
p642
sVO=C(Nc1ccccc1)Nc2ccccc2
p643
V-3.15
p644
sVCCC1(C(=O)NC(=O)NC1=O)c2ccccc2
p645
V-2.322
p646
sVClc1ccc(cc1)c2cccc(Cl)c2Cl
p647
V-6.29
p648
sVCC(C)c1ccc(NC(=O)N(C)C)cc1
p649
V-3.536
p650
sVCCN(CC)C(=O)CSc1ccc(Cl)nn1
p651
V-1.716
p652
sVCCC(C)(C)CO
p653
V-1.04
p654
sVCCCOC(=O)CCC
p655
V-1.75
p656
sVCc1c(cc(cc1N(=O)=O)N(=O)=O)N(=O)=O
p657
V-3.22
p658
sVCC(C)OP(=S)(OC(C)C)SCCNS(=O)(=O)c1ccccc1
p659
V-4.2
p660
sVC1CCCCCC1
p661
V-3.51
p662
sVCCCOC=O
p663
V-0.49
p664
sVCC(C)c1ccccc1C
p665
V-3.76
p666
sVNc1cccc(Cl)c1
p667
V-1.37
p668
sVCC(C)CC(C)C
p669
V-4.26
p670
sVo1c2ccccc2c3ccccc13
p671
V-4.6
p672
sVCCOC2Oc1ccc(OS(C)(=O)=O)cc1C2(C)C
p673
V-3.42
p674
sVCN(C)C(=O)Nc1cccc(c1)C(F)(F)F
p675
V-3.43
p676
sVc3ccc2nc1ccccc1cc2c3
p677
V-3.67
p678
sVCC12CC(=O)C3C(CCC4=CC(=O)CCC34C)C2CCC1(O)C(=O)CO
p679
V-3.11
p680
sVOCC1OC(O)C(O)C(O)C1O
p681
V0.74
p682
sVCc1cccc(O)c1
p683
V-0.68
p684
sVCC2Cc1ccccc1N2NC(=O)c3ccc(Cl)c(c3)S(N)(=O)=O
p685
V-3.586
p686
sVCCC(C)C(=O)OC2CC(C)C=C3C=CC(C)C(CCC1CC(O)CC(=O)O1)C23
p687
V-6.005
p688
sVO=N(=O)c1ccc(cc1)N(=O)=O
p689
V-3.39
p690
sVCCC1(C(=O)NC(=O)NC1=O)C2=CCC3CCC2C3
p691
V-2.696
p692
sVCCCCCCCCCC(=O)OCC
p693
V-4.1
p694
sVCN(C)C(=O)Nc1ccccc1
p695
V-1.6
p696
sVCCCOCC
p697
V-0.66
p698
sVCC(C)O
p699
V0.43
p700
sVCc1ccc2ccccc2c1
p701
V-3.77
p702
sVClC(Br)Br
p703
V-1.9
p704
sVCCC(C(CC)c1ccc(O)cc1)c2ccc(O)cc2
p705
V-4.43
p706
sVCCOC(=O)CC(SP(=S)(OC)OC)C(=O)OCC
p707
V-3.37
p708
sVClCc1ccccc1
p709
V-2.39
p710
sVC/C=C/C=O
p711
V0.32
p712
sVCON(C)C(=O)Nc1ccc(Br)c(Cl)c1
p713
V-3.924
p714
sVCc1c2ccccc2c(C)c3ccccc13
p715
V-6.57
p716
sVCCCCCC(=O)OC
p717
V-1.87
p718
sVCN(C)C(=O)Nc1ccc(c(Cl)c1)n2nc(oc2=O)C(C)(C)C
p719
V-4.328
p720
sVCC(=O)Nc1ccc(F)cc1
p721
V-1.78
p722
sVCCc1cccc(CC)c1N(COC)C(=O)CCl
p723
V-3.26
p724
sVC1CCC=CC1
p725
V-2.59
p726
sVCC12CC(O)C3C(CCC4=CC(=O)CCC34C)C2CCC1(O)C(=O)CO
p727
V-3.09
p728
sVc1cncnc1
p729
V1.1
p730
sVClc1ccc(cc1)N(=O)=O
p731
V-2.92
p732
sVCCC(=O)OC
p733
V-0.14
p734
sVClc1ccccc1N(=O)=O
p735
V-2.55
p736
sVCCCCN(C)C(=O)Nc1ccc(Cl)c(Cl)c1
p737
V-4.77
p738
sVCN1CC(O)N(C1=O)c2nnc(s2)C(C)(C)C
p739
V-1.877
p740
sVO=N(=O)c1ccccc1
p741
V-1.8
p742
sVIc1ccccc1
p743
V-3.01
p744
sVCC2Nc1cc(Cl)c(cc1C(=O)N2c3ccccc3C)S(N)(=O)=O
p745
V-3.78
p746
sVCOc1ccccc1OCC(O)COC(N)=O
p747
V-0.985
p748
sVCCCCOCN(C(=O)CCl)c1c(CC)cccc1CC
p749
V-4.19
p750
sVOc1cccc(Cl)c1Cl
p751
V-1.3
p752
sVCCCC(=O)OC
p753
V-1.92
p754
sVCCC(=O)Nc1ccc(Cl)c(Cl)c1
p755
V-3
p756
sVNc3nc(N)c2nc(c1ccccc1)c(N)nc2n3
p757
V-2.404
p758
sVCCCCCC(=O)OCC
p759
V-2.35
p760
sVOCC(O)C2OC1OC(OC1C2O)C(Cl)(Cl)Cl
p761
V-1.84
p762
sVCN(C=Nc1ccc(C)cc1C)C=Nc2ccc(C)cc2C
p763
V-5.47
p764
sVCOc1nc(NC(C)C)nc(NC(C)C)n1
p765
V-2.478
p766
sVCCCCCCC=C
p767
V-4.44
p768
sVCc1ccc(N)cc1
p769
V-1.21
p770
sVNc1nccs1
p771
V-0.36
p772
sVc1ccccc1(OC(=O)NC)
p773
V-1.803
p774
sVCCCC(O)CC
p775
V-0.8
p776
sVc3ccc2c(O)c1ccccc1cc2c3
p777
V-4.73
p778
sVCc1ccc2cc3ccccc3cc2c1
p779
V-6.96
p780
sVCc1cccc(C)c1C
p781
V-3.2
p782
sVCNC(=O)Oc1ccc(N(C)C)c(C)c1
p783
V-2.36
p784
sVCCCCCCCC(C)O
p785
V-2.74
p786
sVCN(C(=O)NC(C)(C)c1ccccc1)c2ccccc2
p787
V-3.35
p788
sVCCCC(=O)CC
p789
V-0.83
p790
sVOc1c(Br)cc(C#N)cc1Br
p791
V-3.33
p792
sVClc1ccc(cc1Cl)c2ccccc2
p793
V-6.39
p794
sVCN(C(=O)COc1nc2ccccc2s1)c3ccccc3
p795
V-4.873
p796
sVOc1cccc2ncccc12
p797
V-2.54
p798
sVCC1=C(SCCO1)C(=O)Nc2ccccc2
p799
V-3.14
p800
sVCCOc2ccc1nc(sc1c2)S(N)(=O)=O
p801
V-3.81
p802
sVOc1c(Cl)c(Cl)c(Cl)c(Cl)c1Cl
p803
V-4.28
p804
sVClCBr
p805
V-0.89
p806
sVCCC1(CC)C(=O)NC(=O)N(C)C1=O
p807
V-2.23
p808
sVCC(=O)OCC(=O)C3CCC4C2CCC1=CC(=O)CCC1(C)C2CCC34C
p809
V-4.63
p810
sVNC(=O)NCc1ccccc1
p811
V-0.95
p812
sVCN(C)C(=O)Nc1ccc(C)c(Cl)c1
p813
V-3.483
p814
sVCON(C)C(=O)Nc1ccc(Cl)c(Cl)c1
p815
V-3.592
p816
sVOC1CCCCCC1
p817
V-0.88
p818
sVCS(=O)(=O)c1ccc(cc1)C(O)C(CO)NC(=O)C(Cl)Cl
p819
V-2.154
p820
sVCCCC(C)C1(CC)C(=O)NC(=S)NC1=O
p821
V-3.36
p822
sVCC(=O)Nc1nnc(s1)S(N)(=O)=O
p823
V-2.36
p824
sVOc1ccc(cc1)N(=O)=O
p825
V-0.74
p826
sVClC1=C(Cl)C2(Cl)C3C4CC(C=C4)C3C1(Cl)C2(Cl)Cl
p827
V-6.307
p828
sVC1CCOC1
p829
V0.49
p830
sVNc1ccccc1N(=O)=O
p831
V-1.96
p832
sVClc1cccc(c1Cl)c2cccc(Cl)c2Cl
p833
V-7.28
p834
sVCCCCC1C(=O)N(N(C1=O)c2ccccc2)c3ccccc3
p835
V-3.81
p836
sVCc1c(cccc1N(=O)=O)N(=O)=O
p837
V-3
p838
sVCC(=O)C1CCC2C3CCC4=CC(=O)CCC4(C)C3CCC12C
p839
V-4.42
p840
sVCCN(CC)c1nc(Cl)nc(n1)N(CC)CC
p841
V-4.411
p842
sVClC(Cl)C(Cl)(Cl)SN2C(=O)C1CC=CCC1C2=O
p843
V-5.4
p844
sVc1(Br)c(Br)cc(Br)cc1
p845
V-4.5
p846
sVOC3N=C(c1ccccc1)c2cc(Cl)ccc2NC3=O
p847
V-3.952
p848
sVO=C1NC(=O)NC(=O)C1(C(C)CCC)CC=C
p849
V-2.356
p850
sVc1(O)c(C)ccc(C(C)C)c1
p851
V-2.08
p852
sVC1SC(=S)NC1(=O)
p853
V-1.77
p854
sVOc1ccc(c(O)c1)c3oc2cc(O)cc(O)c2c(=O)c3O
p855
V-3.083
p856
sVClC1(C(=O)C2(Cl)C3(Cl)C14Cl)C5(Cl)C2(Cl)C3(Cl)C(Cl)(Cl)C45Cl
p857
V-5.259
p858
sVCCN(CC)C(=S)SSC(=S)N(CC)CC
p859
V-4.86
p860
sVC1CCCCC1
p861
V-3.1
p862
sVClC1=C(Cl)C(Cl)(C(=C1Cl)Cl)C2(Cl)C(=C(Cl)C(=C2Cl)Cl)Cl
p863
V-7.278
p864
sVCN(C)C=Nc1ccc(Cl)cc1C
p865
V-2.86
p866
sVCC34CCc1c(ccc2cc(O)ccc12)C3CCC4=O
p867
V-5.24
p868
sVCCCCCCCCO
p869
V-2.39
p870
sVCCSCC
p871
V-1.34
p872
sVClCCCl
p873
V-1.06
p874
sVCCC(C)(C)Cl
p875
V-2.51
p876
sVClCCBr
p877
V-1.32
p878
sVNc1ccc(cc1)N(=O)=O
p879
V-2.37
p880
sVOCC1OC(OC2C(O)C(O)C(O)OC2CO)C(O)C(O)C1O
p881
V-0.244
p882
sVCCN2c1ncccc1N(CC)C(=O)c3cccnc23
p883
V-2.86
p884
sVClc1ccccc1
p885
V-2.38
p886
sVCCCCCCCC=C
p887
V-5.05
p888
sVBrc1ccc(I)cc1
p889
V-4.56
p890
sVCCC(C)(O)CC
p891
V-0.36
p892
sVCCCCCc1ccccc1
p893
V-4.64
p894
sVNC(=O)NC1NC(=O)NC1=O
p895
V-1.6
p896
sVOCC(O)COC(=O)c1ccccc1Nc2ccnc3cc(Cl)ccc23
p897
V-4.571
p898
sVClC(Cl)C(c1ccc(Cl)cc1)c2ccc(Cl)cc2
p899
V-7.2
p900
sVCC(=O)OC3CCC4C2CCC1=CC(=O)CCC1(C)C2CCC34C
p901
V-5.184
p902
sVClc1cccc2ccccc12
p903
V-3.93
p904
sVCCN2c1ccccc1N(C)C(=O)c3ccccc23
p905
V-4.749
p906
sVCCCCC(C)O
p907
V-0.89
p908
sVCCCC1CCCC1
p909
V-4.74
p910
sVCCOC(=O)c1cncn1C(C)c2ccccc2
p911
V-4.735
p912
sVOc1ccc(Cl)c(Cl)c1
p913
V-1.25
p914
sVCC1(C)C(C=C(Cl)Cl)C1C(=O)OC(C#N)c2cccc(Oc3ccccc3)c2
p915
V-8.017
p916
sVc2ccc1ocnc1c2
p917
V-1.16
p918
sVCCCCCO
p919
V-0.6
p920
sVCCN(CC)c1ccccc1
p921
V-3.03
p922
sVFc1cccc(F)c1
p923
V-2
p924
sVClCCC#N
p925
V-0.29
p926
sVCC(C)(C)Cc1ccccc1
p927
V-4.15
p928
sVO=C1NC(=O)NC(=O)C1(CC)c1ccccc1
p929
V-2.322
p930
sVClc1ccccc1I
p931
V-3.54
p932
sVc2ccc1[nH]nnc1c2
p933
V-0.78
p934
sVCNC(=O)Oc1cccc2CC(C)(C)Oc12
p935
V-2.8
p936
sVCc1cccc(C)c1O
p937
V-1.29
p938
sVCC(C)C(C)O
p939
V-0.18
p940
sVc1ccccc1C(O)c2ccccc2
p941
V-2.55
p942
sVCCCCCCCCCC(=O)OC
p943
V-4.69
p944
sVCOP(=S)(OC)Oc1ccc(cc1Cl)N(=O)=O
p945
V-4.31
p946
sVCC(C)CBr
p947
V-2.43
p948
sVCCI
p949
V-1.6
p950
sVCN(C)C(=O)Oc1nc(nc(C)c1C)N(C)C
p951
V-1.95
p952
sVCCCCCCBr
p953
V-3.81
p954
sVCCCC(C)C
p955
V-3.74
p956
sVCc1c(F)c(F)c(COC(=O)C2C(C=C(Cl)C(F)(F)F)C2(C)C)c(F)c1F
p957
V-7.321
p958
sVCCc1cccc(C)c1N(C(C)COC)C(=O)CCl
p959
V-2.73
p960
sVON=Cc1ccc(o1)N(=O)=O
p961
V-2.19
p962
sVCC(C)C(Nc1ccc(cc1Cl)C(F)(F)F)C(=O)OC(C#N)c2cccc(Oc3ccccc3)c2
p963
V-8.003
p964
sVNc1nc[nH]n1
p965
V0.522
p966
sVBrC(Br)Br
p967
V-1.91
p968
sVCOP(=O)(OC)C(O)C(Cl)(Cl)Cl
p969
V-0.22
p970
sVCCOP(=S)(OCC)SCn1c(=O)oc2cc(Cl)ccc12
p971
V-5.233
p972
sVOCc1ccccc1
p973
V-0.4
p974
sVO=c2c(C3CCCc4ccccc43)c(O)c1ccccc1o2
p975
V-2.84
p976
sVOc1ccc(Br)cc1
p977
V-1.09
p978
sVCC(C)Br
p979
V-1.59
p980
sVCC(C)CC(C)(C)C
p981
V-4.74
p982
sVO=N(=O)c1cc(cc(c1)N(=O)=O)N(=O)=O
p983
V-2.89
p984
sVCN2C(=O)CN=C(c1ccccc1)c3cc(ccc23)N(=O)=O
p985
V-3.796
p986
sVCCC
p987
V-1.94
p988
sVNc1cc(nc(N)n1=O)N2CCCCC2
p989
V-1.989
p990
sVNc2cccc3nc1ccccc1cc23
p991
V-4.22
p992
sVc1ccc2cc3c4cccc5cccc(c3cc2c1)c45
p993
V-8.49
p994
sVOC(c1ccc(Cl)cc1)(c2ccc(Cl)cc2)C(Cl)(Cl)Cl
p995
V-5.666
p996
sVC1Cc2cccc3cccc1c23
p997
V-4.63
p998
sVCCOP(=S)(OCC)SC(CCl)N2C(=O)c1ccccc1C2=O
p999
V-6.34
p1000
sVBrc1ccc(Br)cc1
p1001
V-4.07
p1002
sVCn2c(=O)on(c1ccc(Cl)c(Cl)c1)c2=O
p1003
V-2.82
p1004
sVOc1ccc(cc1)c2ccccc2
p1005
V-3.48
p1006
sVCC1=C(CCCO1)C(=O)Nc2ccccc2
p1007
V-2.56
p1008
sVCCOC=C
p1009
V-0.85
p1010
sVCCC#C
p1011
V-1.24
p1012
sVCOc1ncnc2nccnc12
p1013
V-1.11
p1014
sVCCCCC(C)(O)CC
p1015
V-1.6
p1016
sVClc1ccc(Cl)cc1
p1017
V-3.27
p1018
sVO=C1N(COC(=O)C)C(=O)C(N1)(c2ccccc2)c3ccccc3
p1019
V-4.47
p1020
sVCSCS(=O)CC(CO)NC(=O)C=Cc1c(C)[nH]c(=O)[nH]c1=O
p1021
V-1.981
p1022
sVCc1c[nH]c2ccccc12
p1023
V-2.42
p1024
sVCOc2ncc1nccnc1n2
p1025
V-1.11
p1026
sVCNC(=O)Oc1ccccc1C2OCCO2
p1027
V-1.57
p1028
sVC1N(C(=O)NCC(C)C)C(=O)NC1
p1029
V-2.15
p1030
sVCC#N
p1031
V0.26
p1032
sVCCOC(=O)NCCOc2ccc(Oc1ccccc1)cc2
p1033
V-4.7
p1034
sVCC(=O)N(S(=O)c1ccc(N)cc1)c2onc(C)c2C
p1035
V-3.59
p1036
sVClCC(Cl)(Cl)Cl
p1037
V-2.18
p1038
sVCCCCO
p1039
g228
sVCC1CCCCC1NC(=O)Nc2ccccc2
p1040
V-4.11
p1041
sVClc1cc(Cl)cc(Cl)c1
p1042
V-4.48
p1043
sVO=Cc1ccco1
p1044
V-0.1
p1045
sVCC(C)CCO
p1046
V-0.51
p1047
sVO=Cc2ccc1OCOc1c2
p1048
V-1.63
p1049
sVCC(=C)C
p1050
V-2.33
p1051
sVO=Cc1ccccc1
p1052
V-1.19
p1053
sVCC(=C)C(=C)C
p1054
V-2.4
p1055
sVCCOC(=O)CCN(SN(C)C(=O)Oc1cccc2CC(C)(C)Oc21)C(C)C
p1056
V-4.71
p1057
sVO2c1ccccc1N(C)C(=O)c3cccnc23
p1058
V-3.672
p1059
sVC1c2ccccc2c3ccccc13
p1060
V-5
p1061
sVCC1CCCCC1
p1062
V-3.85
p1063
sVNC(=N)NS(=O)(=O)c1ccc(N)cc1
p1064
V-1.99
p1065
sVCOC(=O)c1ccc(O)cc1
p1066
V-1.827
p1067
sVCC1CCCO1
p1068
V0.11
p1069
sVCC3C2CCC1(C)C=CC(=O)C(=C1C2OC3=O)C
p1070
V-3.09
p1071
sVOCC2OC(Oc1ccccc1CO)C(O)C(O)C2O
p1072
V-0.85
p1073
sVCCCI
p1074
V-2.29
p1075
sVCCNc1nc(NC(C)C)nc(SC)n1
p1076
V-3.04
p1077
sVCCCO
p1078
V0.62
p1079
sVCC(=O)C1(O)CCC2C3CCC4=CC(=O)CCC4(C)C3CCC21C
p1080
V-3.817
p1081
sVCCCC(C)O
p1082
V-0.29
p1083
sVOC(C(=O)c1ccccc1)c2ccccc2
p1084
V-2.85
p1085
sVCc1ccc(O)c(C)c1
p1086
V-1.19
p1087
sVClc1cccc(c1)N(=O)=O
p1088
V-2.77
p1089
sVCc2c(N)c(=O)n(c1ccccc1)n2C
p1090
V-0.624
p1091
sVClc1ccc(c(Cl)c1)c2cc(Cl)ccc2Cl
p1092
V-6.57
p1093
sVClC(=C(Cl)C(=C(Cl)Cl)Cl)Cl
p1094
V-4.92
p1095
sVCCNc1nc(NC(C)(C)C)nc(SC)n1
p1096
V-4
p1097
sVCCC(C)CCO
p1098
V-0.71
p1099
sVCc2ncc1nccnc1n2
p1100
V-0.12
p1101
sVCC23Cc1cnoc1C=C2CCC4C3CCC5(C)C4CCC5(O)C#C
p1102
V-5.507
p1103
sVCCCCI
p1104
V-2.96
p1105
sVBrc1ccc2ccccc2c1
p1106
V-4.4
p1107
sVCC1OC(CC(O)C1O)OC2C(O)CC(OC2C)OC8C(O)CC(OC7CCC3(C)C(CCC4C3CC(O)C5(C)C(CCC45O)C6=CC(=O)OC6)C7)OC8C
p1108
V-4.081
p1109
sVFC(F)(F)c1ccccc1
p1110
V-2.51
p1111
sVCCCCCCOC(=O)c1ccccc1C(=O)OCCCCCC
p1112
V-6.144
p1113
sVc1ccc2c(c1)sc3ccccc23
p1114
V-4.38
p1115
sVClc1ccc(c(Cl)c1)c2ccc(Cl)c(Cl)c2Cl
p1116
V-7.8
p1117
sVClc1ccc(c(Cl)c1Cl)c2ccc(Cl)c(Cl)c2Cl
p1118
V-8.01
p1119
sVCC(=O)CC(c1ccccc1)c3c(O)c2ccccc2oc3=O
p1120
V-3.893
p1121
sVc1ccccc1C(O)C(O)c2ccccc2
p1122
V-1.93
p1123
sVCOC(=O)c1ccccc1C(=O)OC
p1124
V-1.66
p1125
sVCCCCCCCC(=O)OCC
p1126
V-3.39
p1127
sVCCSSCC
p1128
V-2.42
p1129
sVCCOCCOCC
p1130
V-0.77
p1131
sVClc1cc(Cl)c(Cl)cc1Cl
p1132
V-5.56
p1133
sVNc1ccc(cc1)c2ccc(N)cc2
p1134
V-2.7
p1135
sVCCCCCC=C
p1136
V-3.73
p1137
sVCCCCc1c(C)nc(NCC)[nH]c1=O
p1138
V-3.028
p1139
sVO=C1NC(=O)NC(=O)C1(CC)C(C)CCC
p1140
V-2.39
p1141
sVNc1ccccc1Cl
p1142
V-1.52
p1143
sVCOc1cccc(Cl)c1
p1144
V-2.78
p1145
sVCCCCN(CC)C(=O)SCCC
p1146
V-3.53
p1147
sVCCCCOC=O
p1148
V-1.37
p1149
sVCC12CC(O)C3C(CCC4=CC(=O)C=CC34C)C2CCC1(O)C(=O)CO
p1150
V-3.18
p1151
sVBrC(Cl)Cl
p1152
V-1.54
p1153
sVCC34CC(=O)C1C(CCC2=CC(=O)CCC12C)C3CCC4(=O)
p1154
V-3.48
p1155
sVc1ccc(cc1)c2ccc(cc2)c3ccccc3
p1156
V-7.11
p1157
sVOc1ccc(C=O)cc1
p1158
V-0.96
p1159
sVCBr
p1160
V-0.79
p1161
sVCc1cc(ccc1NS(=O)(=O)C(F)(F)F)S(=O)(=O)c2ccccc2
p1162
V-3.8
p1163
sVCC(=O)CC(c1ccc(Cl)cc1)c2c(O)c3ccccc3oc2=O
p1164
V-5.839
p1165
sVCCc1ccc2ccccc2c1
p1166
V-4.29
p1167
sVNc1c(C)c[nH]c(=O)n1
p1168
V-1.458
p1169
sVClc2c(Cl)c(Cl)c(c1ccccc1)c(Cl)c2Cl
p1170
V-7.92
p1171
sVc1c(NC(=O)c2ccccc2(I))cccc1
p1172
V-4.21
p1173
sVCc3cc2nc1c(=O)[nH]c(=O)nc1n(CC(O)C(O)C(O)CO)c2cc3C
p1174
V-3.685
p1175
sVFc1ccccc1Br
p1176
V-2.7
p1177
sVOc1ccc(Cl)cc1Cl
p1178
V-1.55
p1179
sVCC1(C)C(C=C(Cl)Cl)C1C(=O)OCc2cccc(Oc3ccccc3)c2
p1180
V-6.291
p1181
sVCN2C(=C(O)c1ccccc1S2(=O)=O)C(=O)Nc3ccccn3
p1182
V-4.16
p1183
sVO=C1N(COC(=O)CC)C(=O)C(N1)(c2ccccc2)c3ccccc3
p1184
V-4.907
p1185
sVC1CCCC1
p1186
V-2.64
p1187
sVCc1ccccc1N
p1188
V-2.21
p1189
sVc1(OC)ccc(CC=C)cc1
p1190
V-2.92
p1191
sVCN(C)C(=O)Nc1cccc(OC(=O)NC(C)(C)C)c1
p1192
V-2.93
p1193
sVCC(C)C=C
p1194
V-2.73
p1195
sVOc1ccccn1
p1196
V1.02
p1197
sVCC
p1198
V-1.36
p1199
sVClc1ccccc1Cl
p1200
V-3.05
p1201
sVSc2nc1ccccc1s2
p1202
V-3.18
p1203
sVClc1c(Cl)c(Cl)c(c(Cl)c1Cl)c2c(Cl)c(Cl)c(Cl)c(Cl)c2Cl
p1204
V-11.6
p1205
sVCOc2c1occc1cc3ccc(=O)oc23
p1206
V-3.664
p1207
sVCC(=O)N
p1208
V1.58
p1209
sVCc1cccc2ccccc12
p1210
V-3.7
p1211
sVCCN(CC)C(=O)C(C)Oc1cccc2ccccc12
p1212
V-3.57
p1213
sVCC(O)C(C)(C)C
p1214
V-0.62
p1215
sVCCCC(=O)OCC
p1216
V-1.36
p1217
sVCC2=CC(=O)c1ccccc1C2=O
p1218
V-3.03
p1219
sVc1ccc2c(c1)ccc3ccccc32
p1220
V-5.26
p1221
sVCc1ccnc(C)c1
p1222
V0.38
p1223
sVCCCCCCCCCO
p1224
V-3.01
p1225
sVBrCBr
p1226
V-1.17
p1227
sVCC1CC2C3CCC4=CC(=O)C=CC4(C)C3(F)C(O)CC2(C)C1(O)C(=O)CO
p1228
V-3.59
p1229
sVCc1ccc2cc(C)ccc2c1
p1230
V-4.89
p1231
sVCCSC(=O)N(CC(C)C)CC(C)C
p1232
V-3.68
p1233
sVO=N(=O)OCC(CON(=O)=O)ON(=O)=O
p1234
V-2.22
p1235
sVNc1cccc(c1)N(=O)=O
p1236
V-2.19
p1237
sVCCCCCl
p1238
V-2.03
p1239
sVClC(Cl)(Cl)C(NC=O)N1C=CN(C=C1)C(NC=O)C(Cl)(Cl)Cl
p1240
V-4.19
p1241
sVCn2cc(c1ccccc1)c(=O)c(c2)c3cccc(c3)C(F)(F)F
p1242
V-4.445
p1243
sVNc3cc2c1ccccc1ccc2c4ccccc34
p1244
V-6.2
p1245
sVCC12CCC3C(CCc4cc(O)ccc34)C2CCC1=O
p1246
V-3.955
p1247
sVCCN2c1ccccc1N(C)C(=S)c3cccnc23
p1248
V-4.706
p1249
sVCC1CO1
p1250
V-0.59
p1251
sVO=C3CN=C(c1ccccc1)c2cc(ccc2N3)N(=O)=O
p1252
V-3.796
p1253
sVCCNC(=S)NCC
p1254
V-1.46
p1255
sVOc1cc(Cl)cc(Cl)c1Cl
p1256
V-2.67
p1257
sVCCCCC(=O)OC
p1258
V-1.34
p1259
sVNc1ccccc1
p1260
V-0.41
p1261
sVCc1cccc2c(C)cccc12
p1262
V-4.679
p1263
sVNS(=O)(=O)c2cc1c(NCNS1(=O)=O)cc2Cl
p1264
V-2.63
p1265
sVC1=Cc2cccc3cccc1c23
p1266
V-3.96
p1267
sVCCCCCOC(=O)CC
p1268
V-1.28
p1269
sVCCNc1nc(NC(C)C)nc(OC)n1
p1270
V-2.084
p1271
sVc1ccc2c(c1)cc3ccc4cccc5ccc2c3c45
p1272
V-8.699
p1273
sVCCBr
p1274
V-1.09
p1275
sVCCC#CCC
p1276
V-1.99
p1277
sVCC1OC(CC(O)C1O)OC2C(O)CC(OC2C)OC8C(O)CC(OC7CCC3(C)C(CCC4C3CCC5(C)C(CCC45O)C6=CC(=O)OC6)C7)OC8C
p1278
V-5.293
p1279
sVCCC(=C)C
p1280
V-2.73
p1281
sVOc1cccc2cccnc12
p1282
V-2.42
p1283
sVC1CCc2ccccc2C1
p1284
V-4.37
p1285
sVOc1ccc(cc1)C2(OC(=O)c3ccccc23)c4ccc(O)cc4
p1286
V-2.9
p1287
sVBrc1cc(Br)cc(Br)c1
p1288
V-5.6
p1289
sVCOP(=S)(OC)Oc1cc(Cl)c(Cl)cc1Cl
p1290
V-5.72
p1291
sVCc1cc(=O)[nH]c(=S)[nH]1
p1292
V-2.436
p1293
sVCOc1cc(CC=C)ccc1O
p1294
V-1.56
p1295
sVO=C1NC(=O)NC(=O)C1(C(C)C)CC=C
p1296
V-1.708
p1297
sVc1cc2ccc3cccc4ccc(c1)c2c34
p1298
V-6.176
p1299
sVCCOC(C)OCC
p1300
V-0.43
p1301
sVCC1(C)CON(Cc2ccccc2Cl)C1=O
p1302
V-2.338
p1303
sVCCCCOCCO
p1304
V-0.42
p1305
sVClc1c(Cl)c(Cl)c(N(=O)=O)c(Cl)c1Cl
p1306
V-5.82
p1307
sVCC12CCC(O)CC1CCC3C2CCC4(C)C3CCC4=O
p1308
V-4.402
p1309
sVFC(F)(F)c1cccc(c1)N2CC(CCl)C(Cl)C2=O
p1310
V-4.047
p1311
sVc1ccc2ncccc2c1
p1312
V-1.3
p1313
sVCOC(=O)c1cc(O)c(O)c(O)c1
p1314
V-1.24
p1315
sVOC(Cn1cncn1)(Cn2cncn2)c3ccc(F)cc3F
p1316
V-1.8
p1317
sVClc2ccc1oc(=O)[nH]c1c2
p1318
V-2.831
p1319
sVClc1ccc(c(Cl)c1)c2c(Cl)c(Cl)c(Cl)c(Cl)c2Cl
p1320
V-7.92
p1321
sVO=C1NC(=O)C(=O)C(=O)N1
p1322
V-1.25
p1323
sVClCCCCl
p1324
V-1.62
p1325
sVFc1cccc(Br)c1
p1326
V-2.67
p1327
sVClc1ccc(Br)cc1
p1328
V-3.63
p1329
sVCC(C)C(C)C
p1330
V-3.65
p1331
sVCCC=C
p1332
V-1.94
p1333
sVClc1ccc(Cl)c(c1)c2cc(Cl)c(Cl)c(Cl)c2Cl
p1334
V-7.68
p1335
sVNc1cc[nH]c(=O)n1
p1336
V-1.155
p1337
sVFC(F)(Cl)C(F)(Cl)Cl
p1338
V-3.04
p1339
sVCCC#N
p1340
V0.28
p1341
sVClC(Cl)C(c1ccc(Cl)cc1)c2ccccc2Cl
p1342
V-6.51
p1343
sVCOc1ccccc1N(=O)=O
p1344
V-1.96
p1345
sVCC34CCC1C(CC=C2CC(O)CCC12C)C3CCC4=O
p1346
V-4.12
p1347
sVCC12CC2(C)C(=O)N(C1=O)c3cc(Cl)cc(Cl)c3
p1348
V-4.8
p1349
sVc1cc2ccc3ccc4ccc5cccc6c(c1)c2c3c4c56
p1350
V-9.018
p1351
sVCCC(C)c1cc(cc(N(=O)=O)c1O)N(=O)=O
p1352
V-3.38
p1353
sVc1c(OC)c(OC)C2C(=O)OCC2c1
p1354
V-1.899
p1355
sVOCC(O)CO
p1356
V1.12
p1357
sVCOc1ccccc1O
p1358
V-1.96
p1359
sVCCOP(=S)(OCC)Oc1nc(Cl)c(Cl)cc1Cl
p1360
V-5.67
p1361
sVCc1c2ccccc2cc3ccccc13
p1362
V-5.89
p1363
sVCc1cc(=O)n(c2ccccc2)n1C
p1364
V0.715
p1365
sVCCCCOC
p1366
V-0.99
p1367
sVCc2cnc1cncnc1n2
p1368
V-0.854
p1369
sVCCNc1nc(Cl)nc(NCC)n1
p1370
V-4.55
p1371
sVCN(C)C(=O)C
p1372
V1.11
p1373
sVCSc1nc(nc(n1)N(C)C)N(C)C
p1374
V-2.676
p1375
sVC=C
p1376
V-0.4
p1377
sVCC(C)(C)CCO
p1378
V-0.5
p1379
sVO=C1NC(=O)NC(=O)C1(CC)CC=C
p1380
V-1.614
p1381
sVOc1ccc(Cl)c(Cl)c1Cl
p1382
V-2.67
p1383
sVCOc1ccccc1
p1384
V-1.85
p1385
sVc1ccc(Cl)cc1C(c2ccc(Cl)cc2)(O)C(=O)OC(C)C
p1386
V-4.53
p1387
sVCC13CCC(=O)C=C1CCC4C2CCC(C(=O)CO)C2(CC(O)C34)C=O
p1388
V-3.85
p1389
sVCOc2ccc(Oc1ccc(NC(=O)N(C)C)cc1)cc2
p1390
V-4.16
p1391
sVCCc1ccc(C)cc1
p1392
V-3.11
p1393
sVCC(C)SC(C)C
p1394
V-2.24
p1395
sVO=N(=O)c1cccc(c1)N(=O)=O
p1396
V-2.29
p1397
sVCCOP(=S)(OCC)SCSP(=S)(OCC)OCC
p1398
V-5.54
p1399
sVCCC1(C(C)C)C(=O)NC(=O)NC1=O
p1400
V-2.21
p1401
sVCC(=O)OCC(=O)C3(O)CCC4C2CCC1=CC(=O)CCC1(C)C2C(=O)CC34C
p1402
V-4.21
p1403
sVCc1ncc(N(=O)=O)n1CCO
p1404
V-1.26
p1405
sVNc1ccc(Cl)cc1
p1406
V-1.66
p1407
sVCCCC(C)(C)CO
p1408
V-1.52
p1409
sVc1ccoc1
p1410
V-0.82
p1411
sVCOCCCNc1nc(NC(C)C)nc(SC)n1
p1412
V-2.928
p1413
sVCN(C)C(=O)NC1CC2CC1C3CCCC23
p1414
V-3.171
p1415
sVCC(C)(C)c1ccccc1
p1416
V-3.66
p1417
sVCC(=O)CCC1C(=O)N(N(C1=O)c2ccccc2)c3ccccc3
p1418
V-3.27
p1419
sVCC(=O)OCC(=O)C3(O)CCC4C2CCC1=CC(=O)C=CC1(C)C2C(O)CC34C
p1420
V-4.37
p1421
sVCCCOC
p1422
V-0.39
p1423
sVCC(C)OC(=O)C
p1424
V-0.55
p1425
sVBrc1ccccc1
p1426
V-2.55
p1427
sVCCOC(=O)c1ccc(O)cc1
p1428
V-2.35
p1429
sVO=C1N(COC(=O)CCC)C(=O)C(N1)(c2ccccc2)c3ccccc3
p1430
V-5.071
p1431
sVCCC(=O)OC3CCC4C2CCC1=CC(=O)CCC1(C)C2CCC34C
p1432
V-5.37
p1433
sVc1cc2ccc3ccc4ccc5ccc6ccc1c7c2c3c4c5c67
p1434
V-9.332
p1435
sVO=c1[nH]cnc2[nH]ncc12
p1436
V-2.266
p1437
sVClC=C
p1438
V-1.75
p1439
sVCN(C)C(=O)C(c1ccccc1)c2ccccc2
p1440
V-2.98
p1441
sVBrC(Br)(Br)Br
p1442
V-3.14
p1443
sVCCN2c1cc(N(C)C)cc(C)c1NC(=O)c3cccnc23
p1444
V-4.871
p1445
sVO=C1NC(=O)c2ccccc12
p1446
V-2.61
p1447
sVOC(c1ccc(Cl)cc1)(c2cncnc2)c3ccccc3Cl
p1448
V-4.38
p1449
sVCOC(=O)c1ccccc1
p1450
V-1.85
p1451
sVCn1ccc(=O)[nH]c1=O
p1452
V-0.807
p1453
sVCCCCC1C(=O)N(N(C1=O)c2ccc(O)cc2)c3ccccc3
p1454
V-3.73
p1455
sVClc1ccc(Cl)c(c1)c2cccc(Cl)c2Cl
p1456
V-6.47
p1457
sVCCC2NC(=O)c1cc(c(Cl)cc1N2)S(N)(=O)=O
p1458
V-3.29
p1459
sVCN(C)C(=O)Nc1ccc(Cl)c(Cl)c1
p1460
V-3.8
p1461
sVC1CC=CC1
p1462
V-2.1
p1463
sVC1(=O)NC(=O)NC(=O)C1(O)C2(O)C(=O)NC(=O)NC2(=O)
p1464
V-1.99
p1465
sVCCCCCCCCC
p1466
V-5.88
p1467
sVOc1ccccc1Cl
p1468
V-1.06
p1469
sVc1cccc2c3c(C)cc4ccccc4c3ccc12
p1470
V-6.59
p1471
sVCCOc1ccccc1
p1472
V-2.33
p1473
sVCCOC(=O)C=Cc1ccccc1
p1474
V-3
p1475
sVCc1[nH]c(=O)n(c(=O)c1Cl)C(C)(C)C
p1476
V-2.484
p1477
sVClc1ccccc1C2=NCC(=O)Nc3ccc(cc23)N(=O)=O
p1478
V-3.499
p1479
sVCc1ccc(cc1)S(=O)(=O)N
p1480
V-1.74
p1481
sVCC(OC(=O)Nc1cccc(Cl)c1)C#C
p1482
V-2.617
p1483
sVCCCCCC(C)C
p1484
V-5.08
p1485
sVCC1(C)C(C=C(Cl)C(F)(F)F)C1C(=O)OC(C#N)c2cccc(Oc3ccccc3)c2
p1486
V-8.176
p1487
sVCCCC1C(=O)N3N(C1=O)c2cc(C)ccc2N=C3N(C)C
p1488
V-3.538
p1489
sVCN2C(=O)CN=C(c1ccccc1)c3cc(Cl)ccc23
p1490
V-3.754
p1491
sVCCC(O)C(C)C
p1492
V-0.7
p1493
sVCCOP(=S)(OCC)Oc1ccc(cc1)S(C)=O
p1494
V-2.3
p1495
sVCC1(C)C2CCC1(C)C(O)C2
p1496
V-2.32
p1497
sVCC12CCC3C(CCC4=CC(=O)CCC34C)C2CCC1O
p1498
V-4.02
p1499
sVCCCCCCC
p1500
V-4.53
p1501
sVOc1cccc2ccccc12
p1502
V-2.22
p1503
sVC/C1CCCCC1\u005cC
p1504
V-4.3
p1505
sVCOc2cc1c(N)nc(nc1c(OC)c2OC)N3CCN(CC3)C(=O)OCC(C)(C)O
p1506
V-3.638
p1507
sVC1Cc2c3c1cccc3cc4c2ccc5ccccc54
p1508
V-7.85
p1509
sVCC(=O)C3(C)CCC4C2C=C(C)C1=CC(=O)CCC1(C)C2CCC34C
p1510
V-5.27
p1511
sVCCCCCC(=O)C
p1512
V-1.45
p1513
sVCOP(=O)(NC(C)=O)SC
p1514
V0.54
p1515
sVCCCCSP(=O)(SCCCC)SCCCC
p1516
V-5.14
p1517
sVc1cC2C(=O)NC(=O)C2cc1
p1518
V-2.932
p1519
sVNS(=O)(=O)c2cc1c(NC(NS1(=O)=O)C(Cl)Cl)cc2Cl
p1520
V-2.68
p1521
sVCC=C(C)C
p1522
V-2.56
p1523
sVCc1ccc(C)c(C)c1
p1524
V-3.31
p1525
sVOc1cc(Cl)c(Cl)cc1Cl
p1526
V-2.21
p1527
sVc1ccc2c(c1)cnc3ccccc23
p1528
V-2.78
p1529
sVCCCC(C)(O)CC
p1530
V-0.98
p1531
sVCCCCCCCC
p1532
V-5.24
p1533
sVc1ccc2cc3ccccc3cc2c1
p1534
V-6.35
p1535
sVNNc1ccccc1
p1536
V0.07
p1537
sVCCC=O
p1538
V0.58
p1539
sVC1CCCCCCC1
p1540
V-4.15
p1541
sVO=C1NC(=O)NC(=O)C1(CC=C)CC=C
p1542
V-2.077
p1543
sVClC(Cl)Cl
p1544
V-1.17
p1545
sVSc1nccc(=O)[nH]1
p1546
V-2.273
p1547
sVClc1ccc(CN(C2CCCC2)C(=O)Nc3ccccc3)cc1
p1548
V-5.915
p1549
sVCC1=CCCCC1
p1550
V-3.27
p1551
sVCCCCC(CC)C=O
p1552
V-2.13
p1553
sVCOc2c1occc1c(OC)c3c(=O)cc(C)oc23
p1554
V-3.021
p1555
sVO=C1NC(=O)NC(=O)C1(CC)CCC(C)C
p1556
V-2.658
p1557
sVc1ccc2c3c(ccc2c1)c4cccc5cccc3c45
p1558
V-8
p1559
sVCCC(CC)C=O
p1560
V-1.52
p1561
sVCCCOCCC
p1562
V-1.62
p1563
sVCCCCCCCCCCCCCCO
p1564
V-5.84
p1565
sVOc1c(Cl)ccc(Cl)c1Cl
p1566
V-2.64
p1567
sVNC(=O)N
p1568
V0.96
p1569
sVCCCC#C
p1570
V-1.64
p1571
sVBrc1cccc(Br)c1
p1572
V-3.54
p1573
sVCCCCCCCCCCCCCCCCCCO
p1574
V-8.4
p1575
sVCC(=O)Nc1ccccc1
p1576
V-1.33
p1577
sVc1cc(O)c(O)c2OCC3(O)CC4=CC(=O)C(O)=CC4=C3c21
p1578
V-2.7
p1579
sVc1nccc(C(=O)NN)c1
p1580
V0.009
p1581
sVOC1C=CC2C1C3(Cl)C(=C(Cl)C2(Cl)C3(Cl)Cl)Cl
p1582
V-5.46
p1583
sVCC(C)CCOC=O
p1584
V-1.52
p1585
sVCC(=O)c1ccccc1
p1586
V-1.28
p1587
sVc2ccc1nc(ccc1c2)c4ccc3ccccc3n4
p1588
V-5.4
p1589
sVCCOP(=O)(OCC)OCC
p1590
V0.43
p1591
sVCC2(C)C1CCC(C)(C1)C2=O
p1592
V-1.85
p1593
sVCOc2cnc1cncnc1n2
p1594
V-0.91
p1595
sVClC2=C(Cl)C3(Cl)C1C=CCC1C2(Cl)C3(Cl)Cl
p1596
V-5.64
p1597
sVCC(C)N(=O)=O
p1598
V-0.62
p1599
sVc1ccc2c(c1)[nH]c3ccccc32
p1600
V-5.27
p1601
sVOCC(O)C(O)CO
p1602
V0.7
p1603
sVCCCOC(=O)c1ccc(N)cc1
p1604
V-2.452
p1605
sVCNC(=O)C=C(C)OP(=O)(OC)OC
p1606
V0.651
p1607
sVO=C1CCC(=O)N1
p1608
V0.3
p1609
sVCCC(C)C(C)C
p1610
V-4.28
p1611
sVCCCCc1c(C)nc(NCC)nc1OS(=O)(=O)N(C)C
p1612
V-4.16
p1613
sVCCN2c1ncccc1N(C)C(=S)c3cccnc23
p1614
V-4.634
p1615
sVO2c1ccccc1N(CC)C(=O)c3ccccc23
p1616
V-3.68
p1617
sVC1CCOCC1
p1618
V-0.03
p1619
sVCCCCCC#C
p1620
V-3.01
p1621
sVc1cc2ccc(OC)c(CC=C(C)(C))c2oc1=O
p1622
V-4.314
p1623
sVc1cc(C)cc2c1c3cc4cccc5CCc(c45)c3cc2
p1624
V-7.92
p1625
sVCCOC(=O)c1ccccc1
p1626
V-2.32
p1627
sVClCC(C)C
p1628
V-2
p1629
sVCC34CCC1C(CCc2cc(O)ccc12)C3CCC4(O)C#C
p1630
V-4.3
p1631
sVCCCCCCCCCCCC(=O)OC
p1632
V-4.69
p1633
sVCCCSCCC
p1634
V-2.58
p1635
sVc1ccc2cc3cc4ccccc4cc3cc2c1
p1636
V-8.6
p1637
sVCCCCCBr
p1638
V-3.08
p1639
sVCCCC/C=C/C
p1640
V-3.82
p1641
sVCCCCCC1CCCC1
p1642
V-6.08
p1643
sVClc1ccc(Cl)c(c1)c2c(Cl)c(Cl)cc(Cl)c2Cl
p1644
V-7.42
p1645
sVO=C1NC(=O)NC(=O)C1(CC)C(C)C
p1646
V-2.148
p1647
sVCC(Cl)(Cl)Cl
p1648
V-2
p1649
sVCON(C)C(=O)Nc1ccc(Cl)cc1
p1650
V-2.57
p1651
sVO=C2NC(=O)C1(CCCCC1)C(=O)N2
p1652
V-3.06
p1653
sVCN(C)C(=O)OC1=CC(=O)CC(C)(C)C1
p1654
V-0.85
p1655
sVCc1ccc(Br)cc1
p1656
V-3.19
p1657
sVCCOCC
p1658
V-0.09
p1659
sVCC(C)NC(=O)N1CC(=O)N(C1=O)c2cc(Cl)cc(Cl)c2
p1660
V-4.376
p1661
sVCCCCN(CC)c1c(cc(cc1N(=O)=O)C(F)(F)F)N(=O)=O
p1662
V-5.53
p1663
sVCc1cc(C)c(O)c(C)c1
p1664
V-2.05
p1665
sVc1ccccc1
p1666
V-1.64
p1667
sVClc1ccc(I)cc1
p1668
V-4.03
p1669
sVCOc1ccc(NC(=O)N(C)C)cc1Cl
p1670
V-2.564
p1671
sVCC(C)N(C(=O)CCl)c1ccccc1
p1672
V-2.48
p1673
sVC=Cc1ccccc1
p1674
V-2.82
p1675
sVCOCOC
p1676
V0.48
p1677
sVCc1ccccc1C
p1678
V-2.8
p1679
sVCCC(C)O
p1680
V0.47
p1681
sVOc1ccc(O)cc1
p1682
V-0.17
p1683
sVCC34CCC1C(CCc2cc(O)ccc12)C3CC(O)C4O
p1684
V-4.955
p1685
sVC1c2ccccc2c3cc4ccccc4cc13
p1686
V-8.04
p1687
sVO=C1CNC(=O)N1
p1688
V-0.4
p1689
sVc1(O)cc(O)ccc1CCCCCC
p1690
V-2.59
p1691
sVC=CCS(=O)SCC=C
p1692
V-0.83
p1693
sVCCOP(=S)(OCC)Oc2ccc1oc(=O)c(Cl)c(C)c1c2
p1694
V-5.382
p1695
sVCc1c(C)c2c3ccccc3ccc2c4ccccc14
p1696
V-7.01
p1697
sVCCCCC(=O)OC3(C(C)CC4C2CCC1=CC(=O)C=CC1(C)C2(F)C(O)CC34C)C(=O)CO
p1698
V-4.71
p1699
sVO=c2[nH]c(=O)c1[nH]c(=O)[nH]c1[nH]2
p1700
V-3.93
p1701
sVOc1c(Cl)cc(Cl)c(Cl)c1Cl
p1702
V-3.1
p1703
sVClc1cccc(Cl)c1
p1704
V-3.04
p1705
sVClc1ccc(cc1)C(c2ccc(Cl)cc2)C(Cl)(Cl)Cl
p1706
V-7.15
p1707
sVCC(C)COC=O
p1708
V-1.01
p1709
sVc1ccccc1SC
p1710
V-2.39
p1711
sVCCN2c1nc(C)cc(C(F)(F)F)c1NC(=O)c3cccnc23
p1712
V-4.207
p1713
sVCCCCCC
p1714
V-3.84
p1715
sVCOC(=O)c1cccnc1
p1716
V-0.46
p1717
sVNS(=O)(=O)c3cc2c(NC(Cc1ccccc1)NS2(=O)=O)cc3C(F)(F)F
p1718
V-3.59
p1719
sVClc1ccc(cc1Cl)c2cc(Cl)c(Cl)c(Cl)c2Cl
p1720
V-7.82
p1721
sVCC1(OC(=O)N(C1=O)c2cc(Cl)cc(Cl)c2)C=C
p1722
V-4.925
p1723
sVCCNc1nc(Cl)nc(NC(C)(C)C#N)n1
p1724
V-3.15
p1725
sVc1ccc2c(c1)c3ccccc3c4ccccc24
p1726
V-6.726
p1727
sVCC=C(C(=CC)c1ccc(O)cc1)c2ccc(O)cc2
p1728
V-4.95
p1729
sVCCCCC(CC)COC(=O)c1ccccc1C(=O)OCC(CC)CCCC
p1730
V-6.96
p1731
sVCCc1ccccn1
p1732
V0.51
p1733
sVCOP(=O)(OC)OC(Br)C(Cl)(Cl)Br
p1734
V-2.28
p1735
sVc1ccc(cc1)c2ccccc2
p1736
V-4.345
p1737
sVClc1cc(Cl)c(c(Cl)c1)c2c(Cl)cc(Cl)cc2Cl
p1738
V-8.71
p1739
sVCN(C)c1nc(nc(n1)N(C)C)N(C)C
p1740
V-3.364
p1741
sVCC(C)CC(C)(C)O
p1742
V-0.92
p1743
sVO=C2NC(=O)C1(CCCCCC1)C(=O)N2
p1744
V-3.168
p1745
sVOCC1OC(O)(CO)C(O)C1O
p1746
V0.64
p1747
sVCc1cc(C)cc(O)c1
p1748
V-1.4
p1749
sVClCC#CCOC(=O)Nc1cccc(Cl)c1
p1750
V-4.37
p1751
sVCC(=O)Nc1ccc(Cl)cc1
p1752
V-2.843
p1753
sVClc1ccc(Cl)c(c1)c2c(Cl)c(Cl)c(Cl)c(Cl)c2Cl
p1754
V-8.94
p1755
sVCCC(C)(C)C
p1756
V-3.55
p1757
sVCNc1ccccc1
p1758
V-1.28
p1759
sVC=CCC=C
p1760
V-2.09
p1761
sVCC(=O)OCC(=O)C1(O)CCC2C3CCC4=CC(=O)CCC4(C)C3C(O)CC21C
p1762
V-4.88
p1763
sVCc1cc(cc(N(=O)=O)c1O)N(=O)=O
p1764
V-1.456
p1765
sVOC3N=C(c1ccccc1Cl)c2cc(Cl)ccc2NC3=O
p1766
V-3.604
p1767
sVOc1cccc(Cl)c1
p1768
V-0.7
p1769
sVClc1cccc(Br)c1
p1770
V-3.21
p1771
sVNS(=O)(=O)c2cc1c(N=CNS1(=O)=O)cc2Cl
p1772
V-3.05
p1773
sVO=C1NC(=O)NC(=O)C1(C)CC
p1774
V-1.228
p1775
sVOCCOc1ccccc1
p1776
V-0.7
p1777
sVC(c1ccccc1)c2ccccc2
p1778
V-4.08
p1779
sVCCCCCC(O)CC
p1780
V-1.98
p1781
sVCCN(Cc1c(F)cccc1Cl)c2c(cc(cc2N(=O)=O)C(F)(F)F)N(=O)=O
p1782
V-6.78
p1783
sVCC(C)Nc1nc(Cl)nc(NC(C)C)n1
p1784
V-4.43
p1785
sVCCCC(C)CO
p1786
V-1.11
p1787
sVCCCCC(C)(C)O
p1788
V-1.08
p1789
sVCCc1ccccc1
p1790
V-2.77
p1791
sVO=C1NC(=O)NC(=O)C1(CC)CC=C(C)C
p1792
V-2.253
p1793
sVClC1C=CC2C1C3(Cl)C(=C(Cl)C2(Cl)C3(Cl)Cl)Cl
p1794
V-6.317
p1795
sVCCC(C)C1(CC(Br)=C)C(=O)NC(=O)NC1=O
p1796
V-2.647
p1797
sVCC1(C)C(C(=O)OC(C#N)c2cccc(Oc3ccccc3)c2)C1(C)C
p1798
V-6.025
p1799
sVCOC(C)(C)CCCC(C)CC=CC(C)=CC(=O)OC(C)C
p1800
V-5.19
p1801
sVCCOC(=O)CC
p1802
V-0.66
p1803
sVCSc1nc(NC(C)C)nc(NC(C)C)n1
p1804
V-4.1
p1805
sVCC(C#C)N(C)C(=O)Nc1ccc(Cl)cc1
p1806
V-3.9
p1807
sVCc1cc2ccccc2cc1C
p1808
V-4.72
p1809
sVClc1ccc(cc1)c2cc(Cl)ccc2Cl
p1810
V-6.25
p1811
sVClc1ccc(c(Cl)c1)c2cc(Cl)c(Cl)c(Cl)c2Cl
p1812
V-7.39
p1813
sVNC(N)=NC#N
p1814
V-0.31
p1815
sVClC(Cl)(Cl)N(=O)=O
p1816
V-2
p1817
sVClc1cccc(Cl)c1c2ccccc2
p1818
V-5.21
p1819
sVCOc1ccc(C=O)cc1
p1820
V-1.49
p1821
sVCC(=O)Nc1ccc(cc1)N(=O)=O
p1822
V-2.692
p1823
sVCCCCCCC(=O)OCC
p1824
V-2.74
p1825
sVCC(=O)Nc1ccc(O)cc1
p1826
V-1.03
p1827
sVc2ccc1[nH]ncc1c2
p1828
V-2.16
p1829
sVCC5(C)OC4CC3C2CCC1=CC(=O)C=CC1(C)C2(F)C(O)CC3(C)C4(O5)C(=O)CO
p1830
V-4.31
p1831
sVNc2nc1[nH]cnc1c(=O)[nH]2
p1832
V-3.583
p1833
sVCOC(=O)C
p1834
V0.46
p1835
sVCC34CCC1C(CCC2CC(=O)CCC12C)C3CCC4O
p1836
V-4.743
p1837
sVCCCC(O)C=C
p1838
V-0.59
p1839
sVOC(C1=CC2C5C(C1C2=C(c3ccccc3)c4ccccn4)C(=O)NC5=O)(c6ccccc6)c7ccccn7
p1840
V-3.931
p1841
sVCCCCOCCCC
p1842
V-1.85
p1843
sVCCCCCCCCCCCCO
p1844
V-4.8
p1845
sVCCN2c1nc(N(C)(CCO))ccc1NC(=O)c3cccnc23
p1846
V-3.36
p1847
sVCCCC(C)(C)O
p1848
V-0.49
p1849
sVNc1nc(=O)[nH]cc1F
p1850
V-0.972
p1851
sVCCCCOc1ccc(C(=O)OCC)c(c1)N(CC)CC
p1852
V-3.84
p1853
sVCCCCCC(C)(C)O
p1854
V-1.72
p1855
sVCc1c(C)c(C)c(C)c(C)c1C
p1856
V-5.23
p1857
sVCC(C)c1ccc(C)cc1O
p1858
V-2.22
p1859
sVc2cnc1ncncc1n2
p1860
V0.02
p1861
sVCCOP(=S)(OCC)Oc1ccc(cc1)N(=O)=O
p1862
V-4.66
p1863
sVC
p1864
V-0.9
p1865
sVc2ccc1NCCc1c2
p1866
V-1.04
p1867
sVO=N(=O)c1cccc2ccccc12
p1868
V-3.54
p1869
sVCCC(C)C(=O)C
p1870
V-0.67
p1871
sVNc1nc(O)nc2nc[nH]c12
p1872
V-3.401
p1873
sVOC(CC(c1ccccc1)c3c(O)c2ccccc2oc3=O)c4ccc(cc4)c5ccc(Br)cc5
p1874
V-4.445
p1875
sVCN(=O)=O
p1876
V0.26
p1877
sVCC(C)N(C(C)C)C(=O)SCC(Cl)=C(Cl)Cl
p1878
V-4.88
p1879
sVC=CCCC=C
p1880
V-2.68
p1881
sVc2ccc1[nH]ccc1c2
p1882
V-1.52
p1883
sVCC34CCC1C(CCC2=CC(=O)CCC12C)C3CCC4=O
p1884
V-3.69
p1885
sVCCCCC=C
p1886
V-3.23
p1887
sVCc1cccc(C)c1NC(=O)c2cc(c(Cl)cc2O)S(N)(=O)=O
p1888
V-3.79
p1889
sVCCC1CCCCC1
p1890
V-4.25
p1891
sVCCCCCCCC(=O)C
p1892
V-2.58
p1893
sVCOC(=O)Nc2nc1ccc(cc1[nH]2)C(=O)c3ccccc3
p1894
V-3.88
p1895
sVCC(C)OC(=O)Nc1cccc(Cl)c1
p1896
V-3.38
p1897
sVCCN2c1nc(Cl)ccc1N(C)C(=O)c3cccnc23
p1898
V-4.114
p1899
sVCNC(=O)Oc1cccc2ccccc12
p1900
V-3.224
p1901
sVC#C
p1902
V0.29
p1903
sVCc1cncc(C)c1
p1904
V0.38
p1905
sVC1C=CCC=C1
p1906
V-2.06
p1907
sVCCOC(=O)N(C)C(=O)CSP(=S)(OCC)OCC
p1908
V-2.518
p1909
sVCC(O)c1ccccc1
p1910
V-0.92
p1911
sVCC(Cl)CCl
p1912
V-1.6
p1913
sVCCCC=C(CC)C=O
p1914
V-2.46
p1915
sVCCOP(=S)(OCC)SCCSCC
p1916
V-4.23
p1917
sVCC(=O)OC3(C)CCC4C2CCC1=CC(=O)CCC1(C)C2CCC34C
p1918
V-5.284
p1919
sVClc1ccc(cc1)c2c(Cl)cccc2Cl
p1920
V-6.14
p1921
sVFc1cccc(F)c1C(=O)NC(=O)Nc2ccc(Cl)cc2
p1922
V-6.02
p1923
sVOc1cc(Cl)ccc1Oc2ccc(Cl)cc2Cl
p1924
V-4.46
p1925
sVc1(C(=O)OCCCCCC(C)(C))c(C(=O)OCCCCCC(C)(C))cccc1
p1926
V-6.637
p1927
sVCC12CC(O)C3C(CCC4=CC(=O)CCC34C)C2CCC1C(=O)CO
p1928
V-3.24
p1929
sVCc1cc(C)cc(C)c1
p1930
V-3.4
p1931
sVCCCCCCCCOC(=O)c1ccccc1C(=O)OCCCCCCCC
p1932
V-5.115
p1933
sVCCCCCCCCCCCCCCCO
p1934
V-6.35
p1935
sVClc1cccc(Cl)c1c2c(Cl)cccc2Cl
p1936
V-7.39
p1937
sVO=C1NC(=O)NC(=O)C1(C)C
p1938
V-1.742
p1939
sVCC(C)I
p1940
V-2.09
p1941
sVO=N(=O)c1ccccc1N(=O)=O
p1942
V-3.1
p1943
sVCC(C)C(=O)C
p1944
V-0.12
p1945
sVCCCCCCCCCCCCCCCC
p1946
V-8.4
p1947
sVCc2cccc3sc1nncn1c23
p1948
V-2.07
p1949
sVCCCCCCC(=O)C
p1950
V-2.05
p1951
sVCCCCCCCCC(=O)OC
p1952
V-3.38
p1953
sVFc1ccc(F)cc1
p1954
V-1.97
p1955
sVO=C1N(C2CCC(=O)NC2=O)C(=O)c3ccccc13
p1956
V-2.676
p1957
sVCCCN(CCC)c1c(cc(cc1N(=O)=O)C(F)(F)F)N(=O)=O
p1958
V-5.68
p1959
sVCCO
p1960
V1.1
p1961
sVO=C2NC(=O)C1(CCCC1)C(=O)N2
p1962
V-2.349
p1963
sVc1c(NC(=O)OC(C)C(=O)NCC)cccc1
p1964
V-1.83
p1965
sVCC(C)=CC3C(C(=O)OCc2cccc(Oc1ccccc1)c2)C3(C)C
p1966
V-5.24
p1967
sVCN(C)C(=O)NC1CCCCCCC1
p1968
V-2.218
p1969
sVClC1(C2(Cl)C3(Cl)C4(Cl)C5(Cl)C1(Cl)C3(Cl)Cl)C5(Cl)C(Cl)(Cl)C24Cl
p1970
V-6.8
p1971
sVCCCCCCCCBr
p1972
V-5.06
p1973
sVCCCCNC(=O)n1c(NC(=O)OC)nc2ccccc12
p1974
V-4.883
p1975
sVCN(C)c2c(C)n(C)n(c1ccccc1)c2=O
p1976
V-0.364
p1977
sVCCC(O)CC
p1978
V-0.24
p1979
sVCc1ccc(cc1)N(=O)=O
p1980
V-2.49
p1981
sVCC(C)CCCO
p1982
V-1.14
p1983
sVCC34CCC1C(CCC2=CC(=O)CCC12O)C3CCC4(O)C#C
p1984
V-4.57
p1985
sVCC(C)OC(=O)C(O)(c1ccc(Br)cc1)c2ccc(Br)cc2
p1986
V-4.93
p1987
sVNc2cnn(c1ccccc1)c(=O)c2Cl
p1988
V-2.878
p1989
sVCCC(C)(C)O
p1990
V0.15
p1991
sVCc1ccc(O)cc1
p1992
V-0.73
p1993
sVCCOC=O
p1994
V0.15
p1995
sVCN(C)c1ccccc1
p1996
V-1.92
p1997
sVC1CCC2CCCCC2C1
p1998
V-5.19
p1999
sVCCCCS
p2000
V-2.18
p2001
sVc1ccc2c(c1)c3cccc4ccc5cccc2c5c43
p2002
V-7.8
p2003
sVClC(=C(Cl)Cl)Cl
p2004
V-2.54
p2005
sVCCC(=O)CC
p2006
V-0.28
p2007
sVC=CC#N
p2008
V0.15
p2009
sVCC1CC2C3CC(F)C4=CC(=O)C=CC4(C)C3(F)C(O)CC2(C)C1(O)C(=O)CO
p2010
V-5.613
p2011
sVCCCCC(=O)C
p2012
V-0.8
p2013
sVCCNc1nc(NC(C)(C)C)nc(OC)n1
p2014
V-3.239
p2015
sVCCCCC(C)CC
p2016
V-5.16
p2017
sVBrCCBr
p2018
V-1.68
p2019
sVCNC(=O)Oc1ccccc1C(C)C
p2020
V-2.863
p2021
sVO=C1NCCN1c2ncc(s2)N(=O)=O
p2022
V-3.22
p2023
sVC1c2ccccc2c3ccc4ccccc4c13
p2024
V-6.68
p2025
sVCOc1ccccc1Cl
p2026
V-2.46
p2027
sVCOP(=S)(OC)Oc1cc(Cl)c(Br)cc1Cl
p2028
V-6.09
p2029
sVClC(Cl)CC(=O)NC2=C(Cl)C(=O)c1ccccc1C2=O
p2030
V-5.03
p2031
sVCOC(=O)C=C
p2032
V-0.22
p2033
sVCN(C)C(=O)Nc2ccc(Oc1ccc(Cl)cc1)cc2
p2034
V-4.89
p2035
sVN(=Nc1ccccc1)c2ccccc2
p2036
V-4.45
p2037
sVCC(C)c1ccc(C)cc1
p2038
V-3.77
p2039
sVOc1c(Cl)cccc1Cl
p2040
V-1.79
p2041
sVOCC2OC(OC1(CO)OC(CO)C(O)C1O)C(O)C(O)C2O
p2042
V0.79
p2043
sVOC1C(O)C(O)C(O)C(O)C1O
p2044
V0.35
p2045
sVCn2c(=O)n(C)c1ncn(CC(O)CO)c1c2=O
p2046
V-0.17
p2047
sVOCC(NC(=O)C(Cl)Cl)C(O)c1ccc(cc1)N(=O)=O
p2048
V-2.111
p2049
sVCCC(O)(CC)CC
p2050
V-0.85
p2051
sVCC45CCC2C(CCC3CC1SC1CC23C)C4CCC5O
p2052
V-5.41
p2053
sVBrc1ccccc1Br
p2054
V-3.5
p2055
sVOc1c(Cl)cc(Cl)cc1Cl
p2056
V-2.34
p2057
sVCCCN(CCC)c1c(cc(cc1N(=O)=O)S(N)(=O)=O)N(=O)=O
p2058
V-5.16
p2059
sVC2c1ccccc1N(CCF)C(=O)c3ccccc23
p2060
V-4.799
p2061
sVCC(C)C(=O)C(C)C
p2062
V-1.3
p2063
sVO=C1NC(=O)NC(=O)C1(C(C)C)CC=C(C)C
p2064
V-2.593
p2065
sVc1c(O)C2C(=O)C3cc(O)ccC3OC2cc1(OC)
p2066
V-2.943
p2067
sVCn1cnc2n(C)c(=O)n(C)c(=O)c12
p2068
V-0.876
p2069
sVCC(=O)SC4CC1=CC(=O)CCC1(C)C5CCC2(C)C(CCC23CCC(=O)O3)C45
p2070
V-4.173
p2071
sVCc1ccc(O)cc1C
p2072
V-1.38
p2073
sVO(c1ccccc1)c2ccccc2
p2074
V-3.96
p2075
sVClc1cc(Cl)c(cc1Cl)c2cc(Cl)c(Cl)cc2Cl
p2076
V-8.56
p2077
sVNC(=O)c1cccnc1
p2078
V0.61
p2079
sVSc1ccccc1
p2080
V-2.12
p2081
sVCNC(=O)Oc1cc(C)cc(C)c1
p2082
V-2.581
p2083
sVClC1CC2C(C1Cl)C3(Cl)C(=C(Cl)C2(Cl)C3(Cl)Cl)Cl
p2084
V-6.86
p2085
sVCSSC
p2086
V-1.44
p2087
sVNC(=O)c1ccccc1
p2088
V-0.96
p2089
sVClc1ccccc1Br
p2090
V-3.19
p2091
sVCOC(=O)c1ccccc1OC2OC(COC3OCC(O)C(O)C3O)C(O)C(O)C2O
p2092
V-0.742
p2093
sVCCCCC(O)CC
p2094
V-1.47
p2095
sVCCN2c1nc(C)cc(C)c1NC(=O)c3cccnc23
p2096
V-4.554
p2097
sVOc1cc(Cl)cc(Cl)c1
p2098
V-1.34
p2099
sVCc1cccc2c1ccc3ccccc32
p2100
V-5.85
p2101
sVCCCCC(CC)CO
p2102
V-2.11
p2103
sVCC(C)N(C(C)C)C(=O)SCC(=CCl)Cl
p2104
V-4.286
p2105
sVCc1ccccc1
p2106
V-2.21
p2107
sVClc1cccc(n1)C(Cl)(Cl)Cl
p2108
V-3.76
p2109
sVC1CCC=CCC1
p2110
V-3.18
p2111
sVCN(C)C(=S)SSC(=S)N(C)C
p2112
V-3.9
p2113
sVCOC1=CC(=O)CC(C)C13Oc2c(Cl)c(OC)cc(OC)c2C3=O
p2114
V-3.246
p2115
sVCCCCCCCCCCO
p2116
V-3.63
p2117
sVCCC(C)(C)CC
p2118
V-4.23
p2119
sVCNC(=O)C(C)SCCSP(=O)(OC)(OC)
p2120
V1.144
p2121
sVOc1cc(Cl)c(Cl)c(Cl)c1Cl
p2122
V-3.15
p2123
sVCCCC=O
p2124
V-0.01
p2125
sVCC4CC3C2CCC1=CC(=O)C=CC1(C)C2(F)C(O)CC3(C)C4(O)C(=O)COC(C)=O
p2126
V-4.9
p2127
sVCCCC
p2128
V-2.57
p2129
sVCC1CC2C3CCC(O)(C(=O)C)C3(C)CC(O)C2(F)C4(C)C=CC(=O)C=C14
p2130
V-4.099
p2131
sVClC(Cl)C(Cl)(Cl)Cl
p2132
V-2.6
p2133
sVCCOC(=O)c1ccccc1C(=O)OCC
p2134
V-2.35
p2135
sVCC(C)CO
p2136
V0.1
p2137
sVCC(C)Cc1ccccc1
p2138
V-4.12
p2139
sVICI
p2140
V-2.34
p2141
sVCCCC(O)CCC
p2142
V-1.4
p2143
sVCCCCCOC(=O)C
p2144
V-1.89
p2145
sVOc1c(Cl)c(Cl)cc(Cl)c1Cl
p2146
V-3.37
p2147
sVCCCc1ccccc1
p2148
V-3.37
p2149
sVFC(F)(Cl)C(F)(F)Cl
p2150
V-2.74
p2151
sVCC=CC=O
p2152
V0.32
p2153
sVCN(C)C(=O)N(C)C
p2154
V0.94
p2155
sVCc1cc(C)c(C)cc1C
p2156
V-4.59
p2157
sVCC(=O)OC3(CCC4C2CCC1=CC(=O)CCC1C2CCC34C)C#C
p2158
V-4.8
p2159
sVCCOP(=S)(OCC)N2C(=O)c1ccccc1C2=O
p2160
V-3.35
p2161
sVc1ccccc1NC(=O)c2c(O)cccc2
p2162
V-3.59
p2163
sVCCN(CC)C(=S)SCC(Cl)=C
p2164
V-3.39
p2165
sVClCC
p2166
V-1.06
p2167
sVCC(=O)Nc1cc(NS(=O)(=O)C(F)(F)F)c(C)cc1C
p2168
V-3.24
p2169
sVO=C(C=CC=Cc2ccc1OCOc1c2)N3CCCCC3
p2170
V-3.46
p2171
sVCC/C=C\u005cC
p2172
V-2.54
p2173
sVCNC(=O)ON=C(CSC)C(C)(C)C
p2174
V-1.62
p2175
sVO=C2NC(=O)C1(CCCCCCC1)C(=O)N2
p2176
V-2.982
p2177
sVc1(C(C)(C)C)cc(C(C)(C)C)cc(OC(=O)NC)c1
p2178
V-4.24
p2179
sVOc2cc(O)c1C(=O)CC(Oc1c2)c3ccc(O)c(O)c3
p2180
V-3.62
p2181
sVO=C(c1ccccc1)c2ccccc2
p2182
V-3.12
p2183
sVCCCCCCCCCCCCCCCCCCCC
p2184
V-8.172
p2185
sVN(Nc1ccccc1)c2ccccc2
p2186
V-2.92
p2187
sVCCC(CC)CO
p2188
V-1.17
p2189
sVOc1ccncc1
p2190
V1.02
p2191
sVCl\u005cC=C/Cl
p2192
V-1.3
p2193
sVCC1CCCC1
p2194
V-3.3
p2195
sVCC(C)CC(C)O
p2196
V-0.8
p2197
sVO2c1ccc(N)cc1N(C)C(=O)c3cc(C)ccc23
p2198
V-3.928
p2199
sVCC(C)(C)CO
p2200
V-0.4
p2201
sVCC(C)(C)C(=O)C(Oc1ccc(Cl)cc1)n2cncn2
p2202
V-3.61
p2203
sVCc1cc(no1)C(=O)NNCc2ccccc2
p2204
V-2.461
p2205
sVCC=C
p2206
V-1.08
p2207
sVOc1ccc(Cl)cc1Cc2cc(Cl)ccc2O
p2208
V-3.953
p2209
sVCCOC(=O)Nc2cccc(OC(=O)Nc1ccccc1)c2
p2210
V-4.632
p2211
sVO=C1c2ccccc2C(=O)c3ccccc13
p2212
V-5.19
p2213
sVCCCCCCC(C)O
p2214
V-2.09
p2215
sVCC1=C(C(=O)Nc2ccccc2)S(=O)(=O)CCO1
p2216
V-2.281
p2217
sVCCCCc1ccccc1
p2218
V-4.06
p2219
sVO=C1NC(=O)C(=O)N1
p2220
V-0.4
p2221
sVCOP(=S)(OC)Oc1ccc(Sc2ccc(OP(=S)(OC)OC)cc2)cc1
p2222
V-6.237
p2223
sVNS(=O)(=O)c1cc(ccc1Cl)C2(O)NC(=O)c3ccccc23
p2224
V-3.451
p2225
sVCC(C)COC(=O)C
p2226
V-1.21
p2227
sVCC(C)C(C)(C)C
p2228
V-4.36
p2229
sVClc1ccc(c(Cl)c1Cl)c2c(Cl)cc(Cl)c(Cl)c2Cl
p2230
V-7.66
p2231
sVN#Cc1ccccc1C#N
p2232
V-2.38
p2233
sVCc1cccc(c1)N(=O)=O
p2234
V-2.44
p2235
sVFC(F)(F)C(Cl)Br
p2236
V-1.71
p2237
sVCNC(=O)ON=C(SC)C(=O)N(C)C
p2238
V0.106
p2239
sVCCSCCSP(=S)(OC)OC
p2240
V-3.091
p2241
sVCCC(C)C
p2242
V-3.18
p2243
sVCOP(=O)(OC)OC(=CCl)c1cc(Cl)c(Cl)cc1Cl
p2244
V-4.522
p2245
s.